
rv64ui-p-ma_data:     file format elf64-littleriscv


Disassembly of section .text.init:

0000000080000000 <_start>:
    80000000:	0480006f          	j	80000048 <reset_vector>

0000000080000004 <trap_vector>:
    80000004:	34202f73          	csrr	t5,mcause
    80000008:	00800f93          	li	t6,8
    8000000c:	03ff0863          	beq	t5,t6,8000003c <write_tohost>
    80000010:	00900f93          	li	t6,9
    80000014:	03ff0463          	beq	t5,t6,8000003c <write_tohost>
    80000018:	00b00f93          	li	t6,11
    8000001c:	03ff0063          	beq	t5,t6,8000003c <write_tohost>
    80000020:	00000f13          	li	t5,0
    80000024:	000f0463          	beqz	t5,8000002c <trap_vector+0x28>
    80000028:	000f0067          	jr	t5
    8000002c:	34202f73          	csrr	t5,mcause
    80000030:	000f5463          	bgez	t5,80000038 <handle_exception>
    80000034:	0040006f          	j	80000038 <handle_exception>

0000000080000038 <handle_exception>:
    80000038:	5391e193          	ori	gp,gp,1337

000000008000003c <write_tohost>:
    8000003c:	00002f17          	auipc	t5,0x2
    80000040:	fc3f2223          	sw	gp,-60(t5) # 80002000 <tohost>
    80000044:	ff9ff06f          	j	8000003c <write_tohost>

0000000080000048 <reset_vector>:
    80000048:	00000093          	li	ra,0
    8000004c:	00000113          	li	sp,0
    80000050:	00000193          	li	gp,0
    80000054:	00000213          	li	tp,0
    80000058:	00000293          	li	t0,0
    8000005c:	00000313          	li	t1,0
    80000060:	00000393          	li	t2,0
    80000064:	00000413          	li	s0,0
    80000068:	00000493          	li	s1,0
    8000006c:	00000513          	li	a0,0
    80000070:	00000593          	li	a1,0
    80000074:	00000613          	li	a2,0
    80000078:	00000693          	li	a3,0
    8000007c:	00000713          	li	a4,0
    80000080:	00000793          	li	a5,0
    80000084:	00000813          	li	a6,0
    80000088:	00000893          	li	a7,0
    8000008c:	00000913          	li	s2,0
    80000090:	00000993          	li	s3,0
    80000094:	00000a13          	li	s4,0
    80000098:	00000a93          	li	s5,0
    8000009c:	00000b13          	li	s6,0
    800000a0:	00000b93          	li	s7,0
    800000a4:	00000c13          	li	s8,0
    800000a8:	00000c93          	li	s9,0
    800000ac:	00000d13          	li	s10,0
    800000b0:	00000d93          	li	s11,0
    800000b4:	00000e13          	li	t3,0
    800000b8:	00000e93          	li	t4,0
    800000bc:	00000f13          	li	t5,0
    800000c0:	00000f93          	li	t6,0
    800000c4:	f1402573          	csrr	a0,mhartid
    800000c8:	00051063          	bnez	a0,800000c8 <reset_vector+0x80>
    800000cc:	00000297          	auipc	t0,0x0
    800000d0:	01028293          	addi	t0,t0,16 # 800000dc <reset_vector+0x94>
    800000d4:	30529073          	csrw	mtvec,t0
    800000d8:	18005073          	csrwi	satp,0
    800000dc:	30405073          	csrwi	mie,0
    800000e0:	00000297          	auipc	t0,0x0
    800000e4:	01428293          	addi	t0,t0,20 # 800000f4 <reset_vector+0xac>
    800000e8:	30529073          	csrw	mtvec,t0
    800000ec:	30205073          	csrwi	medeleg,0
    800000f0:	30305073          	csrwi	mideleg,0
    800000f4:	00000193          	li	gp,0
    800000f8:	00000297          	auipc	t0,0x0
    800000fc:	f0c28293          	addi	t0,t0,-244 # 80000004 <trap_vector>
    80000100:	30529073          	csrw	mtvec,t0
    80000104:	00100513          	li	a0,1
    80000108:	01f51513          	slli	a0,a0,0x1f
    8000010c:	00055c63          	bgez	a0,80000124 <reset_vector+0xdc>
    80000110:	0ff0000f          	fence
    80000114:	00100193          	li	gp,1
    80000118:	05d00893          	li	a7,93
    8000011c:	00000513          	li	a0,0
    80000120:	0000006b          	.4byte	0x6b
    80000124:	00000293          	li	t0,0
    80000128:	00028a63          	beqz	t0,8000013c <reset_vector+0xf4>
    8000012c:	10529073          	csrw	stvec,t0
    80000130:	0000b2b7          	lui	t0,0xb
    80000134:	1092829b          	addiw	t0,t0,265 # b109 <_start-0x7fff4ef7>
    80000138:	30229073          	csrw	medeleg,t0
    8000013c:	30005073          	csrwi	mstatus,0
    80000140:	00000297          	auipc	t0,0x0
    80000144:	01428293          	addi	t0,t0,20 # 80000154 <reset_vector+0x10c>
    80000148:	34129073          	csrw	mepc,t0
    8000014c:	f1402573          	csrr	a0,mhartid
    80000150:	30200073          	mret
    80000154:	00003417          	auipc	s0,0x3
    80000158:	eac40413          	addi	s0,s0,-340 # 80003000 <begin_signature>
    8000015c:	00100193          	li	gp,1
    80000160:	20100313          	li	t1,513
    80000164:	00141383          	lh	t2,1(s0)
    80000168:	00730463          	beq	t1,t2,80000170 <reset_vector+0x128>
    8000016c:	4610106f          	j	80001dcc <fail>
    80000170:	00200193          	li	gp,2
    80000174:	20100313          	li	t1,513
    80000178:	00145383          	lhu	t2,1(s0)
    8000017c:	00730463          	beq	t1,t2,80000184 <reset_vector+0x13c>
    80000180:	44d0106f          	j	80001dcc <fail>
    80000184:	00300193          	li	gp,3
    80000188:	04030337          	lui	t1,0x4030
    8000018c:	2013031b          	addiw	t1,t1,513 # 4030201 <_start-0x7bfcfdff>
    80000190:	00142383          	lw	t2,1(s0)
    80000194:	00730463          	beq	t1,t2,8000019c <reset_vector+0x154>
    80000198:	4350106f          	j	80001dcc <fail>
    8000019c:	00400193          	li	gp,4
    800001a0:	05040337          	lui	t1,0x5040
    800001a4:	3023031b          	addiw	t1,t1,770 # 5040302 <_start-0x7afbfcfe>
    800001a8:	00242383          	lw	t2,2(s0)
    800001ac:	00730463          	beq	t1,t2,800001b4 <reset_vector+0x16c>
    800001b0:	41d0106f          	j	80001dcc <fail>
    800001b4:	00500193          	li	gp,5
    800001b8:	06050337          	lui	t1,0x6050
    800001bc:	4033031b          	addiw	t1,t1,1027 # 6050403 <_start-0x79fafbfd>
    800001c0:	00342383          	lw	t2,3(s0)
    800001c4:	00730463          	beq	t1,t2,800001cc <reset_vector+0x184>
    800001c8:	4050106f          	j	80001dcc <fail>
    800001cc:	00600193          	li	gp,6
    800001d0:	04030337          	lui	t1,0x4030
    800001d4:	2013031b          	addiw	t1,t1,513 # 4030201 <_start-0x7bfcfdff>
    800001d8:	00146383          	lwu	t2,1(s0)
    800001dc:	00730463          	beq	t1,t2,800001e4 <reset_vector+0x19c>
    800001e0:	3ed0106f          	j	80001dcc <fail>
    800001e4:	00700193          	li	gp,7
    800001e8:	05040337          	lui	t1,0x5040
    800001ec:	3023031b          	addiw	t1,t1,770 # 5040302 <_start-0x7afbfcfe>
    800001f0:	00246383          	lwu	t2,2(s0)
    800001f4:	00730463          	beq	t1,t2,800001fc <reset_vector+0x1b4>
    800001f8:	3d50106f          	j	80001dcc <fail>
    800001fc:	00800193          	li	gp,8
    80000200:	06050337          	lui	t1,0x6050
    80000204:	4033031b          	addiw	t1,t1,1027 # 6050403 <_start-0x79fafbfd>
    80000208:	00346383          	lwu	t2,3(s0)
    8000020c:	00730463          	beq	t1,t2,80000214 <reset_vector+0x1cc>
    80000210:	3bd0106f          	j	80001dcc <fail>
    80000214:	00900193          	li	gp,9
    80000218:	08070337          	lui	t1,0x8070
    8000021c:	6053031b          	addiw	t1,t1,1541 # 8070605 <_start-0x77f8f9fb>
    80000220:	01031313          	slli	t1,t1,0x10
    80000224:	40330313          	addi	t1,t1,1027
    80000228:	01031313          	slli	t1,t1,0x10
    8000022c:	20130313          	addi	t1,t1,513
    80000230:	00143383          	ld	t2,1(s0)
    80000234:	00730463          	beq	t1,t2,8000023c <reset_vector+0x1f4>
    80000238:	3950106f          	j	80001dcc <fail>
    8000023c:	00a00193          	li	gp,10
    80000240:	04840337          	lui	t1,0x4840
    80000244:	3833031b          	addiw	t1,t1,899 # 4840383 <_start-0x7b7bfc7d>
    80000248:	00f31313          	slli	t1,t1,0xf
    8000024c:	14130313          	addi	t1,t1,321
    80000250:	01231313          	slli	t1,t1,0x12
    80000254:	30230313          	addi	t1,t1,770
    80000258:	00243383          	ld	t2,2(s0)
    8000025c:	00730463          	beq	t1,t2,80000264 <reset_vector+0x21c>
    80000260:	36d0106f          	j	80001dcc <fail>
    80000264:	00b00193          	li	gp,11
    80000268:	0a091337          	lui	t1,0xa091
    8000026c:	8073031b          	addiw	t1,t1,-2041 # a090807 <_start-0x75f6f7f9>
    80000270:	01031313          	slli	t1,t1,0x10
    80000274:	60530313          	addi	t1,t1,1541
    80000278:	01031313          	slli	t1,t1,0x10
    8000027c:	40330313          	addi	t1,t1,1027
    80000280:	00343383          	ld	t2,3(s0)
    80000284:	00730463          	beq	t1,t2,8000028c <reset_vector+0x244>
    80000288:	3450106f          	j	80001dcc <fail>
    8000028c:	00c00193          	li	gp,12
    80000290:	01614337          	lui	t1,0x1614
    80000294:	1213031b          	addiw	t1,t1,289 # 1614121 <_start-0x7e9ebedf>
    80000298:	01231313          	slli	t1,t1,0x12
    8000029c:	38330313          	addi	t1,t1,899
    800002a0:	01131313          	slli	t1,t1,0x11
    800002a4:	50430313          	addi	t1,t1,1284
    800002a8:	00443383          	ld	t2,4(s0)
    800002ac:	00730463          	beq	t1,t2,800002b4 <reset_vector+0x26c>
    800002b0:	31d0106f          	j	80001dcc <fail>
    800002b4:	00d00193          	li	gp,13
    800002b8:	00060337          	lui	t1,0x60
    800002bc:	5853031b          	addiw	t1,t1,1413 # 60585 <_start-0x7ff9fa7b>
    800002c0:	00d31313          	slli	t1,t1,0xd
    800002c4:	09130313          	addi	t1,t1,145
    800002c8:	00c31313          	slli	t1,t1,0xc
    800002cc:	80730313          	addi	t1,t1,-2041
    800002d0:	01031313          	slli	t1,t1,0x10
    800002d4:	60530313          	addi	t1,t1,1541
    800002d8:	00543383          	ld	t2,5(s0)
    800002dc:	00730463          	beq	t1,t2,800002e4 <reset_vector+0x29c>
    800002e0:	2ed0106f          	j	80001dcc <fail>
    800002e4:	00e00193          	li	gp,14
    800002e8:	06860337          	lui	t1,0x6860
    800002ec:	5853031b          	addiw	t1,t1,1413 # 6860585 <_start-0x7979fa7b>
    800002f0:	00e31313          	slli	t1,t1,0xe
    800002f4:	12130313          	addi	t1,t1,289
    800002f8:	01331313          	slli	t1,t1,0x13
    800002fc:	70630313          	addi	t1,t1,1798
    80000300:	00643383          	ld	t2,6(s0)
    80000304:	00730463          	beq	t1,t2,8000030c <reset_vector+0x2c4>
    80000308:	2c50106f          	j	80001dcc <fail>
    8000030c:	00f00193          	li	gp,15
    80000310:	00038337          	lui	t1,0x38
    80000314:	3433031b          	addiw	t1,t1,835 # 38343 <_start-0x7ffc7cbd>
    80000318:	01131313          	slli	t1,t1,0x11
    8000031c:	58530313          	addi	t1,t1,1413
    80000320:	00d31313          	slli	t1,t1,0xd
    80000324:	09130313          	addi	t1,t1,145
    80000328:	00c31313          	slli	t1,t1,0xc
    8000032c:	80730313          	addi	t1,t1,-2041
    80000330:	00743383          	ld	t2,7(s0)
    80000334:	00730463          	beq	t1,t2,8000033c <reset_vector+0x2f4>
    80000338:	2950106f          	j	80001dcc <fail>
    8000033c:	01000193          	li	gp,16
    80000340:	00002337          	lui	t1,0x2
    80000344:	01f3031b          	addiw	t1,t1,31 # 201f <_start-0x7fffdfe1>
    80000348:	01f41383          	lh	t2,31(s0)
    8000034c:	00730463          	beq	t1,t2,80000354 <reset_vector+0x30c>
    80000350:	27d0106f          	j	80001dcc <fail>
    80000354:	01100193          	li	gp,17
    80000358:	00002337          	lui	t1,0x2
    8000035c:	01f3031b          	addiw	t1,t1,31 # 201f <_start-0x7fffdfe1>
    80000360:	01f45383          	lhu	t2,31(s0)
    80000364:	00730463          	beq	t1,t2,8000036c <reset_vector+0x324>
    80000368:	2650106f          	j	80001dcc <fail>
    8000036c:	01200193          	li	gp,18
    80000370:	201f2337          	lui	t1,0x201f2
    80000374:	e1d3031b          	addiw	t1,t1,-483 # 201f1e1d <_start-0x5fe0e1e3>
    80000378:	01d42383          	lw	t2,29(s0)
    8000037c:	00730463          	beq	t1,t2,80000384 <reset_vector+0x33c>
    80000380:	24d0106f          	j	80001dcc <fail>
    80000384:	01300193          	li	gp,19
    80000388:	21202337          	lui	t1,0x21202
    8000038c:	f1e3031b          	addiw	t1,t1,-226 # 21201f1e <_start-0x5edfe0e2>
    80000390:	01e42383          	lw	t2,30(s0)
    80000394:	00730463          	beq	t1,t2,8000039c <reset_vector+0x354>
    80000398:	2350106f          	j	80001dcc <fail>
    8000039c:	01400193          	li	gp,20
    800003a0:	22212337          	lui	t1,0x22212
    800003a4:	01f3031b          	addiw	t1,t1,31 # 2221201f <_start-0x5ddedfe1>
    800003a8:	01f42383          	lw	t2,31(s0)
    800003ac:	00730463          	beq	t1,t2,800003b4 <reset_vector+0x36c>
    800003b0:	21d0106f          	j	80001dcc <fail>
    800003b4:	01500193          	li	gp,21
    800003b8:	201f2337          	lui	t1,0x201f2
    800003bc:	e1d3031b          	addiw	t1,t1,-483 # 201f1e1d <_start-0x5fe0e1e3>
    800003c0:	01d46383          	lwu	t2,29(s0)
    800003c4:	00730463          	beq	t1,t2,800003cc <reset_vector+0x384>
    800003c8:	2050106f          	j	80001dcc <fail>
    800003cc:	01600193          	li	gp,22
    800003d0:	21202337          	lui	t1,0x21202
    800003d4:	f1e3031b          	addiw	t1,t1,-226 # 21201f1e <_start-0x5edfe0e2>
    800003d8:	01e46383          	lwu	t2,30(s0)
    800003dc:	00730463          	beq	t1,t2,800003e4 <reset_vector+0x39c>
    800003e0:	1ed0106f          	j	80001dcc <fail>
    800003e4:	01700193          	li	gp,23
    800003e8:	22212337          	lui	t1,0x22212
    800003ec:	01f3031b          	addiw	t1,t1,31 # 2221201f <_start-0x5ddedfe1>
    800003f0:	01f46383          	lwu	t2,31(s0)
    800003f4:	00730463          	beq	t1,t2,800003fc <reset_vector+0x3b4>
    800003f8:	1d50106f          	j	80001dcc <fail>
    800003fc:	01800193          	li	gp,24
    80000400:	00101337          	lui	t1,0x101
    80000404:	f8f3031b          	addiw	t1,t1,-113 # 100f8f <_start-0x7feff071>
    80000408:	00f31313          	slli	t1,t1,0xf
    8000040c:	74730313          	addi	t1,t1,1863
    80000410:	00d31313          	slli	t1,t1,0xd
    80000414:	0d930313          	addi	t1,t1,217
    80000418:	00d31313          	slli	t1,t1,0xd
    8000041c:	a1930313          	addi	t1,t1,-1511
    80000420:	01943383          	ld	t2,25(s0)
    80000424:	00730463          	beq	t1,t2,8000042c <reset_vector+0x3e4>
    80000428:	1a50106f          	j	80001dcc <fail>
    8000042c:	01900193          	li	gp,25
    80000430:	01090337          	lui	t1,0x1090
    80000434:	0f93031b          	addiw	t1,t1,249 # 10900f9 <_start-0x7ef6ff07>
    80000438:	00c31313          	slli	t1,t1,0xc
    8000043c:	f0f30313          	addi	t1,t1,-241
    80000440:	00c31313          	slli	t1,t1,0xc
    80000444:	8e130313          	addi	t1,t1,-1823
    80000448:	00d31313          	slli	t1,t1,0xd
    8000044c:	b1a30313          	addi	t1,t1,-1254
    80000450:	01a43383          	ld	t2,26(s0)
    80000454:	00730463          	beq	t1,t2,8000045c <reset_vector+0x414>
    80000458:	1750106f          	j	80001dcc <fail>
    8000045c:	01a00193          	li	gp,26
    80000460:	01111337          	lui	t1,0x1111
    80000464:	9013031b          	addiw	t1,t1,-1791 # 1110901 <_start-0x7eeef6ff>
    80000468:	00c31313          	slli	t1,t1,0xc
    8000046c:	f8f30313          	addi	t1,t1,-113
    80000470:	00c31313          	slli	t1,t1,0xc
    80000474:	0e930313          	addi	t1,t1,233
    80000478:	00d31313          	slli	t1,t1,0xd
    8000047c:	c1b30313          	addi	t1,t1,-997
    80000480:	01b43383          	ld	t2,27(s0)
    80000484:	00730463          	beq	t1,t2,8000048c <reset_vector+0x444>
    80000488:	1450106f          	j	80001dcc <fail>
    8000048c:	01b00193          	li	gp,27
    80000490:	00119337          	lui	t1,0x119
    80000494:	1113031b          	addiw	t1,t1,273 # 119111 <_start-0x7fee6eef>
    80000498:	00c31313          	slli	t1,t1,0xc
    8000049c:	90130313          	addi	t1,t1,-1791
    800004a0:	01031313          	slli	t1,t1,0x10
    800004a4:	8f130313          	addi	t1,t1,-1807
    800004a8:	00d31313          	slli	t1,t1,0xd
    800004ac:	d1c30313          	addi	t1,t1,-740
    800004b0:	01c43383          	ld	t2,28(s0)
    800004b4:	00730463          	beq	t1,t2,800004bc <reset_vector+0x474>
    800004b8:	1150106f          	j	80001dcc <fail>
    800004bc:	01c00193          	li	gp,28
    800004c0:	00121337          	lui	t1,0x121
    800004c4:	1913031b          	addiw	t1,t1,401 # 121191 <_start-0x7fedee6f>
    800004c8:	00c31313          	slli	t1,t1,0xc
    800004cc:	10930313          	addi	t1,t1,265
    800004d0:	01031313          	slli	t1,t1,0x10
    800004d4:	0f930313          	addi	t1,t1,249
    800004d8:	00d31313          	slli	t1,t1,0xd
    800004dc:	e1d30313          	addi	t1,t1,-483
    800004e0:	01d43383          	ld	t2,29(s0)
    800004e4:	00730463          	beq	t1,t2,800004ec <reset_vector+0x4a4>
    800004e8:	0e50106f          	j	80001dcc <fail>
    800004ec:	01d00193          	li	gp,29
    800004f0:	01292337          	lui	t1,0x1292
    800004f4:	1193031b          	addiw	t1,t1,281 # 1292119 <_start-0x7ed6dee7>
    800004f8:	00c31313          	slli	t1,t1,0xc
    800004fc:	11130313          	addi	t1,t1,273
    80000500:	00c31313          	slli	t1,t1,0xc
    80000504:	90130313          	addi	t1,t1,-1791
    80000508:	00d31313          	slli	t1,t1,0xd
    8000050c:	f1e30313          	addi	t1,t1,-226
    80000510:	01e43383          	ld	t2,30(s0)
    80000514:	00730463          	beq	t1,t2,8000051c <reset_vector+0x4d4>
    80000518:	0b50106f          	j	80001dcc <fail>
    8000051c:	01e00193          	li	gp,30
    80000520:	01313337          	lui	t1,0x1313
    80000524:	9213031b          	addiw	t1,t1,-1759 # 1312921 <_start-0x7eced6df>
    80000528:	00c31313          	slli	t1,t1,0xc
    8000052c:	19130313          	addi	t1,t1,401
    80000530:	00c31313          	slli	t1,t1,0xc
    80000534:	10930313          	addi	t1,t1,265
    80000538:	00d31313          	slli	t1,t1,0xd
    8000053c:	01f30313          	addi	t1,t1,31
    80000540:	01f43383          	ld	t2,31(s0)
    80000544:	00730463          	beq	t1,t2,8000054c <reset_vector+0x504>
    80000548:	0850106f          	j	80001dcc <fail>
    8000054c:	01f00193          	li	gp,31
    80000550:	00004337          	lui	t1,0x4
    80000554:	03f3031b          	addiw	t1,t1,63 # 403f <_start-0x7fffbfc1>
    80000558:	03f41383          	lh	t2,63(s0)
    8000055c:	00730463          	beq	t1,t2,80000564 <reset_vector+0x51c>
    80000560:	06d0106f          	j	80001dcc <fail>
    80000564:	02000193          	li	gp,32
    80000568:	00004337          	lui	t1,0x4
    8000056c:	03f3031b          	addiw	t1,t1,63 # 403f <_start-0x7fffbfc1>
    80000570:	03f45383          	lhu	t2,63(s0)
    80000574:	00730463          	beq	t1,t2,8000057c <reset_vector+0x534>
    80000578:	0550106f          	j	80001dcc <fail>
    8000057c:	02100193          	li	gp,33
    80000580:	403f4337          	lui	t1,0x403f4
    80000584:	e3d3031b          	addiw	t1,t1,-451 # 403f3e3d <_start-0x3fc0c1c3>
    80000588:	03d42383          	lw	t2,61(s0)
    8000058c:	00730463          	beq	t1,t2,80000594 <reset_vector+0x54c>
    80000590:	03d0106f          	j	80001dcc <fail>
    80000594:	02200193          	li	gp,34
    80000598:	41404337          	lui	t1,0x41404
    8000059c:	f3e3031b          	addiw	t1,t1,-194 # 41403f3e <_start-0x3ebfc0c2>
    800005a0:	03e42383          	lw	t2,62(s0)
    800005a4:	00730463          	beq	t1,t2,800005ac <reset_vector+0x564>
    800005a8:	0250106f          	j	80001dcc <fail>
    800005ac:	02300193          	li	gp,35
    800005b0:	42414337          	lui	t1,0x42414
    800005b4:	03f3031b          	addiw	t1,t1,63 # 4241403f <_start-0x3dbebfc1>
    800005b8:	03f42383          	lw	t2,63(s0)
    800005bc:	00730463          	beq	t1,t2,800005c4 <reset_vector+0x57c>
    800005c0:	00d0106f          	j	80001dcc <fail>
    800005c4:	02400193          	li	gp,36
    800005c8:	403f4337          	lui	t1,0x403f4
    800005cc:	e3d3031b          	addiw	t1,t1,-451 # 403f3e3d <_start-0x3fc0c1c3>
    800005d0:	03d46383          	lwu	t2,61(s0)
    800005d4:	00730463          	beq	t1,t2,800005dc <reset_vector+0x594>
    800005d8:	7f40106f          	j	80001dcc <fail>
    800005dc:	02500193          	li	gp,37
    800005e0:	41404337          	lui	t1,0x41404
    800005e4:	f3e3031b          	addiw	t1,t1,-194 # 41403f3e <_start-0x3ebfc0c2>
    800005e8:	03e46383          	lwu	t2,62(s0)
    800005ec:	00730463          	beq	t1,t2,800005f4 <reset_vector+0x5ac>
    800005f0:	7dc0106f          	j	80001dcc <fail>
    800005f4:	02600193          	li	gp,38
    800005f8:	42414337          	lui	t1,0x42414
    800005fc:	03f3031b          	addiw	t1,t1,63 # 4241403f <_start-0x3dbebfc1>
    80000600:	03f46383          	lwu	t2,63(s0)
    80000604:	00730463          	beq	t1,t2,8000060c <reset_vector+0x5c4>
    80000608:	7c40106f          	j	80001dcc <fail>
    8000060c:	02700193          	li	gp,39
    80000610:	01010337          	lui	t1,0x1010
    80000614:	cf93031b          	addiw	t1,t1,-775 # 100fcf9 <_start-0x7eff0307>
    80000618:	00c31313          	slli	t1,t1,0xc
    8000061c:	f4f30313          	addi	t1,t1,-177
    80000620:	00c31313          	slli	t1,t1,0xc
    80000624:	0ed30313          	addi	t1,t1,237
    80000628:	00e31313          	slli	t1,t1,0xe
    8000062c:	a3930313          	addi	t1,t1,-1479
    80000630:	03943383          	ld	t2,57(s0)
    80000634:	00730463          	beq	t1,t2,8000063c <reset_vector+0x5f4>
    80000638:	7940106f          	j	80001dcc <fail>
    8000063c:	02800193          	li	gp,40
    80000640:	01050337          	lui	t1,0x1050
    80000644:	0fd3031b          	addiw	t1,t1,253 # 10500fd <_start-0x7efaff03>
    80000648:	00c31313          	slli	t1,t1,0xc
    8000064c:	f8f30313          	addi	t1,t1,-113
    80000650:	00c31313          	slli	t1,t1,0xc
    80000654:	4f130313          	addi	t1,t1,1265
    80000658:	00e31313          	slli	t1,t1,0xe
    8000065c:	b3a30313          	addi	t1,t1,-1222
    80000660:	03a43383          	ld	t2,58(s0)
    80000664:	00730463          	beq	t1,t2,8000066c <reset_vector+0x624>
    80000668:	7640106f          	j	80001dcc <fail>
    8000066c:	02900193          	li	gp,41
    80000670:	00011337          	lui	t1,0x11
    80000674:	9053031b          	addiw	t1,t1,-1787 # 10905 <_start-0x7ffef6fb>
    80000678:	01031313          	slli	t1,t1,0x10
    8000067c:	0fd30313          	addi	t1,t1,253
    80000680:	01031313          	slli	t1,t1,0x10
    80000684:	8f530313          	addi	t1,t1,-1803
    80000688:	00e31313          	slli	t1,t1,0xe
    8000068c:	c3b30313          	addi	t1,t1,-965
    80000690:	03b43383          	ld	t2,59(s0)
    80000694:	00730463          	beq	t1,t2,8000069c <reset_vector+0x654>
    80000698:	7340106f          	j	80001dcc <fail>
    8000069c:	02a00193          	li	gp,42
    800006a0:	00011337          	lui	t1,0x11
    800006a4:	d093031b          	addiw	t1,t1,-759 # 10d09 <_start-0x7ffef2f7>
    800006a8:	01031313          	slli	t1,t1,0x10
    800006ac:	50130313          	addi	t1,t1,1281
    800006b0:	01031313          	slli	t1,t1,0x10
    800006b4:	cf930313          	addi	t1,t1,-775
    800006b8:	00e31313          	slli	t1,t1,0xe
    800006bc:	d3c30313          	addi	t1,t1,-708
    800006c0:	03c43383          	ld	t2,60(s0)
    800006c4:	00730463          	beq	t1,t2,800006cc <reset_vector+0x684>
    800006c8:	7040106f          	j	80001dcc <fail>
    800006cc:	02b00193          	li	gp,43
    800006d0:	00111337          	lui	t1,0x111
    800006d4:	0d13031b          	addiw	t1,t1,209 # 1110d1 <_start-0x7feeef2f>
    800006d8:	00c31313          	slli	t1,t1,0xc
    800006dc:	90530313          	addi	t1,t1,-1787
    800006e0:	01031313          	slli	t1,t1,0x10
    800006e4:	0fd30313          	addi	t1,t1,253
    800006e8:	00e31313          	slli	t1,t1,0xe
    800006ec:	e3d30313          	addi	t1,t1,-451
    800006f0:	03d43383          	ld	t2,61(s0)
    800006f4:	00730463          	beq	t1,t2,800006fc <reset_vector+0x6b4>
    800006f8:	6d40106f          	j	80001dcc <fail>
    800006fc:	02c00193          	li	gp,44
    80000700:	00115337          	lui	t1,0x115
    80000704:	1113031b          	addiw	t1,t1,273 # 115111 <_start-0x7feeaeef>
    80000708:	00c31313          	slli	t1,t1,0xc
    8000070c:	d0930313          	addi	t1,t1,-759
    80000710:	01031313          	slli	t1,t1,0x10
    80000714:	50130313          	addi	t1,t1,1281
    80000718:	00e31313          	slli	t1,t1,0xe
    8000071c:	f3e30313          	addi	t1,t1,-194
    80000720:	03e43383          	ld	t2,62(s0)
    80000724:	00730463          	beq	t1,t2,8000072c <reset_vector+0x6e4>
    80000728:	6a40106f          	j	80001dcc <fail>
    8000072c:	02d00193          	li	gp,45
    80000730:	01191337          	lui	t1,0x1191
    80000734:	5113031b          	addiw	t1,t1,1297 # 1191511 <_start-0x7ee6eaef>
    80000738:	00c31313          	slli	t1,t1,0xc
    8000073c:	0d130313          	addi	t1,t1,209
    80000740:	00c31313          	slli	t1,t1,0xc
    80000744:	90530313          	addi	t1,t1,-1787
    80000748:	00e31313          	slli	t1,t1,0xe
    8000074c:	03f30313          	addi	t1,t1,63
    80000750:	03f43383          	ld	t2,63(s0)
    80000754:	00730463          	beq	t1,t2,8000075c <reset_vector+0x714>
    80000758:	6740106f          	j	80001dcc <fail>
    8000075c:	02e00193          	li	gp,46
    80000760:	ffff8337          	lui	t1,0xffff8
    80000764:	1803031b          	addiw	t1,t1,384 # ffffffffffff8180 <_end+0xffffffff7fff5000>
    80000768:	006410a3          	sh	t1,1(s0)
    8000076c:	00141383          	lh	t2,1(s0)
    80000770:	00730463          	beq	t1,t2,80000778 <reset_vector+0x730>
    80000774:	6580106f          	j	80001dcc <fail>
    80000778:	02f00193          	li	gp,47
    8000077c:	00008337          	lui	t1,0x8
    80000780:	3823031b          	addiw	t1,t1,898 # 8382 <_start-0x7fff7c7e>
    80000784:	006410a3          	sh	t1,1(s0)
    80000788:	00145383          	lhu	t2,1(s0)
    8000078c:	00730463          	beq	t1,t2,80000794 <reset_vector+0x74c>
    80000790:	63c0106f          	j	80001dcc <fail>
    80000794:	03000193          	li	gp,48
    80000798:	87868337          	lui	t1,0x87868
    8000079c:	5843031b          	addiw	t1,t1,1412 # ffffffff87868584 <_end+0xffffffff07865404>
    800007a0:	006420a3          	sw	t1,1(s0)
    800007a4:	00142383          	lw	t2,1(s0)
    800007a8:	00730463          	beq	t1,t2,800007b0 <reset_vector+0x768>
    800007ac:	6200106f          	j	80001dcc <fail>
    800007b0:	03100193          	li	gp,49
    800007b4:	8b8a9337          	lui	t1,0x8b8a9
    800007b8:	9883031b          	addiw	t1,t1,-1656 # ffffffff8b8a8988 <_end+0xffffffff0b8a5808>
    800007bc:	00642123          	sw	t1,2(s0)
    800007c0:	00242383          	lw	t2,2(s0)
    800007c4:	00730463          	beq	t1,t2,800007cc <reset_vector+0x784>
    800007c8:	6040106f          	j	80001dcc <fail>
    800007cc:	03200193          	li	gp,50
    800007d0:	8f8e9337          	lui	t1,0x8f8e9
    800007d4:	d8c3031b          	addiw	t1,t1,-628 # ffffffff8f8e8d8c <_end+0xffffffff0f8e5c0c>
    800007d8:	006421a3          	sw	t1,3(s0)
    800007dc:	00342383          	lw	t2,3(s0)
    800007e0:	00730463          	beq	t1,t2,800007e8 <reset_vector+0x7a0>
    800007e4:	5e80106f          	j	80001dcc <fail>
    800007e8:	03300193          	li	gp,51
    800007ec:	00094337          	lui	t1,0x94
    800007f0:	9293031b          	addiw	t1,t1,-1751 # 93929 <_start-0x7ff6c6d7>
    800007f4:	00c31313          	slli	t1,t1,0xc
    800007f8:	19030313          	addi	t1,t1,400
    800007fc:	006420a3          	sw	t1,1(s0)
    80000800:	00146383          	lwu	t2,1(s0)
    80000804:	00730463          	beq	t1,t2,8000080c <reset_vector+0x7c4>
    80000808:	5c40106f          	j	80001dcc <fail>
    8000080c:	03400193          	li	gp,52
    80000810:	00098337          	lui	t1,0x98
    80000814:	9693031b          	addiw	t1,t1,-1687 # 97969 <_start-0x7ff68697>
    80000818:	00c31313          	slli	t1,t1,0xc
    8000081c:	59430313          	addi	t1,t1,1428
    80000820:	00642123          	sw	t1,2(s0)
    80000824:	00246383          	lwu	t2,2(s0)
    80000828:	00730463          	beq	t1,t2,80000830 <reset_vector+0x7e8>
    8000082c:	5a00106f          	j	80001dcc <fail>
    80000830:	03500193          	li	gp,53
    80000834:	0004e337          	lui	t1,0x4e
    80000838:	cd53031b          	addiw	t1,t1,-811 # 4dcd5 <_start-0x7ffb232b>
    8000083c:	00d31313          	slli	t1,t1,0xd
    80000840:	99830313          	addi	t1,t1,-1640
    80000844:	006421a3          	sw	t1,3(s0)
    80000848:	00346383          	lwu	t2,3(s0)
    8000084c:	00730463          	beq	t1,t2,80000854 <reset_vector+0x80c>
    80000850:	57c0106f          	j	80001dcc <fail>
    80000854:	03600193          	li	gp,54
    80000858:	ffd1d337          	lui	t1,0xffd1d
    8000085c:	1513031b          	addiw	t1,t1,337 # ffffffffffd1d151 <_end+0xffffffff7fd19fd1>
    80000860:	00c31313          	slli	t1,t1,0xc
    80000864:	d0530313          	addi	t1,t1,-763
    80000868:	01031313          	slli	t1,t1,0x10
    8000086c:	cf530313          	addi	t1,t1,-779
    80000870:	00d31313          	slli	t1,t1,0xd
    80000874:	d9c30313          	addi	t1,t1,-612
    80000878:	006430a3          	sd	t1,1(s0)
    8000087c:	00143383          	ld	t2,1(s0)
    80000880:	00730463          	beq	t1,t2,80000888 <reset_vector+0x840>
    80000884:	5480106f          	j	80001dcc <fail>
    80000888:	03700193          	li	gp,55
    8000088c:	ff575337          	lui	t1,0xff575
    80000890:	5533031b          	addiw	t1,t1,1363 # ffffffffff575553 <_end+0xffffffff7f5723d3>
    80000894:	00c31313          	slli	t1,t1,0xc
    80000898:	51530313          	addi	t1,t1,1301
    8000089c:	00e31313          	slli	t1,t1,0xe
    800008a0:	d3530313          	addi	t1,t1,-715
    800008a4:	00d31313          	slli	t1,t1,0xd
    800008a8:	5a430313          	addi	t1,t1,1444
    800008ac:	00643123          	sd	t1,2(s0)
    800008b0:	00243383          	ld	t2,2(s0)
    800008b4:	00730463          	beq	t1,t2,800008bc <reset_vector+0x874>
    800008b8:	5140106f          	j	80001dcc <fail>
    800008bc:	03800193          	li	gp,56
    800008c0:	ffd9e337          	lui	t1,0xffd9e
    800008c4:	9593031b          	addiw	t1,t1,-1703 # ffffffffffd9d959 <_end+0xffffffff7fd9a7d9>
    800008c8:	00d31313          	slli	t1,t1,0xd
    800008cc:	b0b30313          	addi	t1,t1,-1269
    800008d0:	01031313          	slli	t1,t1,0x10
    800008d4:	aeb30313          	addi	t1,t1,-1301
    800008d8:	00c31313          	slli	t1,t1,0xc
    800008dc:	dac30313          	addi	t1,t1,-596
    800008e0:	006431a3          	sd	t1,3(s0)
    800008e4:	00343383          	ld	t2,3(s0)
    800008e8:	00730463          	beq	t1,t2,800008f0 <reset_vector+0x8a8>
    800008ec:	4e00106f          	j	80001dcc <fail>
    800008f0:	03900193          	li	gp,57
    800008f4:	ff777337          	lui	t1,0xff777
    800008f8:	5733031b          	addiw	t1,t1,1395 # ffffffffff777573 <_end+0xffffffff7f7743f3>
    800008fc:	00c31313          	slli	t1,t1,0xc
    80000900:	71730313          	addi	t1,t1,1815
    80000904:	00f31313          	slli	t1,t1,0xf
    80000908:	b6b30313          	addi	t1,t1,-1173
    8000090c:	00c31313          	slli	t1,t1,0xc
    80000910:	5b430313          	addi	t1,t1,1460
    80000914:	00643223          	sd	t1,4(s0)
    80000918:	00443383          	ld	t2,4(s0)
    8000091c:	00730463          	beq	t1,t2,80000924 <reset_vector+0x8dc>
    80000920:	4ac0106f          	j	80001dcc <fail>
    80000924:	03a00193          	li	gp,58
    80000928:	ffff1337          	lui	t1,0xffff1
    8000092c:	f0b3031b          	addiw	t1,t1,-245 # ffffffffffff0f0b <_end+0xffffffff7ffedd8b>
    80000930:	01031313          	slli	t1,t1,0x10
    80000934:	70330313          	addi	t1,t1,1795
    80000938:	01031313          	slli	t1,t1,0x10
    8000093c:	efb30313          	addi	t1,t1,-261
    80000940:	00e31313          	slli	t1,t1,0xe
    80000944:	dbc30313          	addi	t1,t1,-580
    80000948:	006432a3          	sd	t1,5(s0)
    8000094c:	00543383          	ld	t2,5(s0)
    80000950:	00730463          	beq	t1,t2,80000958 <reset_vector+0x910>
    80000954:	4780106f          	j	80001dcc <fail>
    80000958:	03b00193          	li	gp,59
    8000095c:	ffe5e337          	lui	t1,0xffe5e
    80000960:	5653031b          	addiw	t1,t1,1381 # ffffffffffe5e565 <_end+0xffffffff7fe5b3e5>
    80000964:	00e31313          	slli	t1,t1,0xe
    80000968:	91930313          	addi	t1,t1,-1767
    8000096c:	00d31313          	slli	t1,t1,0xd
    80000970:	f1b30313          	addi	t1,t1,-229
    80000974:	00e31313          	slli	t1,t1,0xe
    80000978:	5c430313          	addi	t1,t1,1476
    8000097c:	00643323          	sd	t1,6(s0)
    80000980:	00643383          	ld	t2,6(s0)
    80000984:	00730463          	beq	t1,t2,8000098c <reset_vector+0x944>
    80000988:	4440106f          	j	80001dcc <fail>
    8000098c:	03c00193          	li	gp,60
    80000990:	ffe9f337          	lui	t1,0xffe9f
    80000994:	9693031b          	addiw	t1,t1,-1687 # ffffffffffe9e969 <_end+0xffffffff7fe9b7e9>
    80000998:	00d31313          	slli	t1,t1,0xd
    8000099c:	d0d30313          	addi	t1,t1,-755
    800009a0:	01031313          	slli	t1,t1,0x10
    800009a4:	ced30313          	addi	t1,t1,-787
    800009a8:	00c31313          	slli	t1,t1,0xc
    800009ac:	dcc30313          	addi	t1,t1,-564
    800009b0:	006433a3          	sd	t1,7(s0)
    800009b4:	00743383          	ld	t2,7(s0)
    800009b8:	00730463          	beq	t1,t2,800009c0 <reset_vector+0x978>
    800009bc:	4100106f          	j	80001dcc <fail>
    800009c0:	03d00193          	li	gp,61
    800009c4:	ffffd337          	lui	t1,0xffffd
    800009c8:	5d43031b          	addiw	t1,t1,1492 # ffffffffffffd5d4 <_end+0xffffffff7fffa454>
    800009cc:	00641fa3          	sh	t1,31(s0)
    800009d0:	01f41383          	lh	t2,31(s0)
    800009d4:	00730463          	beq	t1,t2,800009dc <reset_vector+0x994>
    800009d8:	3f40106f          	j	80001dcc <fail>
    800009dc:	03e00193          	li	gp,62
    800009e0:	0000d337          	lui	t1,0xd
    800009e4:	7d63031b          	addiw	t1,t1,2006 # d7d6 <_start-0x7fff282a>
    800009e8:	00641fa3          	sh	t1,31(s0)
    800009ec:	01f45383          	lhu	t2,31(s0)
    800009f0:	00730463          	beq	t1,t2,800009f8 <reset_vector+0x9b0>
    800009f4:	3d80106f          	j	80001dcc <fail>
    800009f8:	03f00193          	li	gp,63
    800009fc:	dbdae337          	lui	t1,0xdbdae
    80000a00:	9d83031b          	addiw	t1,t1,-1576 # ffffffffdbdad9d8 <_end+0xffffffff5bdaa858>
    80000a04:	00642ea3          	sw	t1,29(s0)
    80000a08:	01d42383          	lw	t2,29(s0)
    80000a0c:	00730463          	beq	t1,t2,80000a14 <reset_vector+0x9cc>
    80000a10:	3bc0106f          	j	80001dcc <fail>
    80000a14:	04000193          	li	gp,64
    80000a18:	dfdee337          	lui	t1,0xdfdee
    80000a1c:	ddc3031b          	addiw	t1,t1,-548 # ffffffffdfdedddc <_end+0xffffffff5fdeac5c>
    80000a20:	00642f23          	sw	t1,30(s0)
    80000a24:	01e42383          	lw	t2,30(s0)
    80000a28:	00730463          	beq	t1,t2,80000a30 <reset_vector+0x9e8>
    80000a2c:	3a00106f          	j	80001dcc <fail>
    80000a30:	04100193          	li	gp,65
    80000a34:	e3e2e337          	lui	t1,0xe3e2e
    80000a38:	1e03031b          	addiw	t1,t1,480 # ffffffffe3e2e1e0 <_end+0xffffffff63e2b060>
    80000a3c:	00642fa3          	sw	t1,31(s0)
    80000a40:	01f42383          	lw	t2,31(s0)
    80000a44:	00730463          	beq	t1,t2,80000a4c <reset_vector+0xa04>
    80000a48:	3840106f          	j	80001dcc <fail>
    80000a4c:	04200193          	li	gp,66
    80000a50:	00074337          	lui	t1,0x74
    80000a54:	f373031b          	addiw	t1,t1,-201 # 73f37 <_start-0x7ff8c0c9>
    80000a58:	00d31313          	slli	t1,t1,0xd
    80000a5c:	5e430313          	addi	t1,t1,1508
    80000a60:	00642ea3          	sw	t1,29(s0)
    80000a64:	01d46383          	lwu	t2,29(s0)
    80000a68:	00730463          	beq	t1,t2,80000a70 <reset_vector+0xa28>
    80000a6c:	3600106f          	j	80001dcc <fail>
    80000a70:	04300193          	li	gp,67
    80000a74:	000ec337          	lui	t1,0xec
    80000a78:	eaf3031b          	addiw	t1,t1,-337 # ebeaf <_start-0x7ff14151>
    80000a7c:	00c31313          	slli	t1,t1,0xc
    80000a80:	9e830313          	addi	t1,t1,-1560
    80000a84:	00642f23          	sw	t1,30(s0)
    80000a88:	01e46383          	lwu	t2,30(s0)
    80000a8c:	00730463          	beq	t1,t2,80000a94 <reset_vector+0xa4c>
    80000a90:	33c0106f          	j	80001dcc <fail>
    80000a94:	04400193          	li	gp,68
    80000a98:	000f0337          	lui	t1,0xf0
    80000a9c:	eef3031b          	addiw	t1,t1,-273 # efeef <_start-0x7ff10111>
    80000aa0:	00c31313          	slli	t1,t1,0xc
    80000aa4:	dec30313          	addi	t1,t1,-532
    80000aa8:	00642fa3          	sw	t1,31(s0)
    80000aac:	01f46383          	lwu	t2,31(s0)
    80000ab0:	00730463          	beq	t1,t2,80000ab8 <reset_vector+0xa70>
    80000ab4:	3180106f          	j	80001dcc <fail>
    80000ab8:	04500193          	li	gp,69
    80000abc:	fffc0337          	lui	t1,0xfffc0
    80000ac0:	b7b3031b          	addiw	t1,t1,-1157 # fffffffffffbfb7b <_end+0xffffffff7ffbc9fb>
    80000ac4:	00f31313          	slli	t1,t1,0xf
    80000ac8:	d3d30313          	addi	t1,t1,-707
    80000acc:	00e31313          	slli	t1,t1,0xe
    80000ad0:	f2f30313          	addi	t1,t1,-209
    80000ad4:	00c31313          	slli	t1,t1,0xc
    80000ad8:	1f030313          	addi	t1,t1,496
    80000adc:	00643ca3          	sd	t1,25(s0)
    80000ae0:	01943383          	ld	t2,25(s0)
    80000ae4:	00730463          	beq	t1,t2,80000aec <reset_vector+0xaa4>
    80000ae8:	2e40106f          	j	80001dcc <fail>
    80000aec:	04600193          	li	gp,70
    80000af0:	ffff0337          	lui	t1,0xffff0
    80000af4:	dfd3031b          	addiw	t1,t1,-515 # fffffffffffefdfd <_end+0xffffffff7ffecc7d>
    80000af8:	01031313          	slli	t1,t1,0x10
    80000afc:	bfb30313          	addi	t1,t1,-1029
    80000b00:	01031313          	slli	t1,t1,0x10
    80000b04:	9f830313          	addi	t1,t1,-1544
    80000b08:	00643d23          	sd	t1,26(s0)
    80000b0c:	01a43383          	ld	t2,26(s0)
    80000b10:	00730463          	beq	t1,t2,80000b18 <reset_vector+0xad0>
    80000b14:	2b80106f          	j	80001dcc <fail>
    80000b18:	04700193          	li	gp,71
    80000b1c:	01c18337          	lui	t1,0x1c18
    80000b20:	1413031b          	addiw	t1,t1,321 # 1c18141 <_start-0x7e3e7ebf>
    80000b24:	01131313          	slli	t1,t1,0x11
    80000b28:	18130313          	addi	t1,t1,385
    80000b2c:	01131313          	slli	t1,t1,0x11
    80000b30:	10030313          	addi	t1,t1,256
    80000b34:	00643da3          	sd	t1,27(s0)
    80000b38:	01b43383          	ld	t2,27(s0)
    80000b3c:	00730463          	beq	t1,t2,80000b44 <reset_vector+0xafc>
    80000b40:	28c0106f          	j	80001dcc <fail>
    80000b44:	04800193          	li	gp,72
    80000b48:	00f0e337          	lui	t1,0xf0e
    80000b4c:	0d13031b          	addiw	t1,t1,209 # f0e0d1 <_start-0x7f0f1f2f>
    80000b50:	00c31313          	slli	t1,t1,0xc
    80000b54:	c0b30313          	addi	t1,t1,-1013
    80000b58:	00c31313          	slli	t1,t1,0xc
    80000b5c:	0a130313          	addi	t1,t1,161
    80000b60:	00c31313          	slli	t1,t1,0xc
    80000b64:	90830313          	addi	t1,t1,-1784
    80000b68:	00643e23          	sd	t1,28(s0)
    80000b6c:	01c43383          	ld	t2,28(s0)
    80000b70:	00730463          	beq	t1,t2,80000b78 <reset_vector+0xb30>
    80000b74:	2580106f          	j	80001dcc <fail>
    80000b78:	04900193          	li	gp,73
    80000b7c:	01716337          	lui	t1,0x1716
    80000b80:	1513031b          	addiw	t1,t1,337 # 1716151 <_start-0x7e8e9eaf>
    80000b84:	00c31313          	slli	t1,t1,0xc
    80000b88:	41330313          	addi	t1,t1,1043
    80000b8c:	00c31313          	slli	t1,t1,0xc
    80000b90:	12130313          	addi	t1,t1,289
    80000b94:	00c31313          	slli	t1,t1,0xc
    80000b98:	11030313          	addi	t1,t1,272
    80000b9c:	00643ea3          	sd	t1,29(s0)
    80000ba0:	01d43383          	ld	t2,29(s0)
    80000ba4:	00730463          	beq	t1,t2,80000bac <reset_vector+0xb64>
    80000ba8:	2240106f          	j	80001dcc <fail>
    80000bac:	04a00193          	li	gp,74
    80000bb0:	001f2337          	lui	t1,0x1f2
    80000bb4:	e1d3031b          	addiw	t1,t1,-483 # 1f1e1d <_start-0x7fe0e1e3>
    80000bb8:	00e31313          	slli	t1,t1,0xe
    80000bbc:	70730313          	addi	t1,t1,1799
    80000bc0:	00d31313          	slli	t1,t1,0xd
    80000bc4:	8d130313          	addi	t1,t1,-1839
    80000bc8:	00d31313          	slli	t1,t1,0xd
    80000bcc:	91830313          	addi	t1,t1,-1768
    80000bd0:	00643f23          	sd	t1,30(s0)
    80000bd4:	01e43383          	ld	t2,30(s0)
    80000bd8:	00730463          	beq	t1,t2,80000be0 <reset_vector+0xb98>
    80000bdc:	1f00106f          	j	80001dcc <fail>
    80000be0:	04b00193          	li	gp,75
    80000be4:	009ca337          	lui	t1,0x9ca
    80000be8:	8953031b          	addiw	t1,t1,-1899 # 9c9895 <_start-0x7f63676b>
    80000bec:	00c31313          	slli	t1,t1,0xc
    80000bf0:	90930313          	addi	t1,t1,-1783
    80000bf4:	00d31313          	slli	t1,t1,0xd
    80000bf8:	91130313          	addi	t1,t1,-1775
    80000bfc:	00d31313          	slli	t1,t1,0xd
    80000c00:	12030313          	addi	t1,t1,288
    80000c04:	00643fa3          	sd	t1,31(s0)
    80000c08:	01f43383          	ld	t2,31(s0)
    80000c0c:	00730463          	beq	t1,t2,80000c14 <reset_vector+0xbcc>
    80000c10:	1bc0106f          	j	80001dcc <fail>
    80000c14:	04c00193          	li	gp,76
    80000c18:	00003337          	lui	t1,0x3
    80000c1c:	5343031b          	addiw	t1,t1,1332 # 3534 <_start-0x7fffcacc>
    80000c20:	02641fa3          	sh	t1,63(s0)
    80000c24:	03f41383          	lh	t2,63(s0)
    80000c28:	00730463          	beq	t1,t2,80000c30 <reset_vector+0xbe8>
    80000c2c:	1a00106f          	j	80001dcc <fail>
    80000c30:	04d00193          	li	gp,77
    80000c34:	00003337          	lui	t1,0x3
    80000c38:	7363031b          	addiw	t1,t1,1846 # 3736 <_start-0x7fffc8ca>
    80000c3c:	02641fa3          	sh	t1,63(s0)
    80000c40:	03f45383          	lhu	t2,63(s0)
    80000c44:	00730463          	beq	t1,t2,80000c4c <reset_vector+0xc04>
    80000c48:	1840106f          	j	80001dcc <fail>
    80000c4c:	04e00193          	li	gp,78
    80000c50:	3b3a4337          	lui	t1,0x3b3a4
    80000c54:	9383031b          	addiw	t1,t1,-1736 # 3b3a3938 <_start-0x44c5c6c8>
    80000c58:	02642ea3          	sw	t1,61(s0)
    80000c5c:	03d42383          	lw	t2,61(s0)
    80000c60:	00730463          	beq	t1,t2,80000c68 <reset_vector+0xc20>
    80000c64:	1680106f          	j	80001dcc <fail>
    80000c68:	04f00193          	li	gp,79
    80000c6c:	3f3e4337          	lui	t1,0x3f3e4
    80000c70:	d3c3031b          	addiw	t1,t1,-708 # 3f3e3d3c <_start-0x40c1c2c4>
    80000c74:	02642f23          	sw	t1,62(s0)
    80000c78:	03e42383          	lw	t2,62(s0)
    80000c7c:	00730463          	beq	t1,t2,80000c84 <reset_vector+0xc3c>
    80000c80:	14c0106f          	j	80001dcc <fail>
    80000c84:	05000193          	li	gp,80
    80000c88:	43424337          	lui	t1,0x43424
    80000c8c:	1403031b          	addiw	t1,t1,320 # 43424140 <_start-0x3cbdbec0>
    80000c90:	02642fa3          	sw	t1,63(s0)
    80000c94:	03f42383          	lw	t2,63(s0)
    80000c98:	00730463          	beq	t1,t2,80000ca0 <reset_vector+0xc58>
    80000c9c:	1300106f          	j	80001dcc <fail>
    80000ca0:	05100193          	li	gp,81
    80000ca4:	47464337          	lui	t1,0x47464
    80000ca8:	5443031b          	addiw	t1,t1,1348 # 47464544 <_start-0x38b9babc>
    80000cac:	02642ea3          	sw	t1,61(s0)
    80000cb0:	03d46383          	lwu	t2,61(s0)
    80000cb4:	00730463          	beq	t1,t2,80000cbc <reset_vector+0xc74>
    80000cb8:	1140106f          	j	80001dcc <fail>
    80000cbc:	05200193          	li	gp,82
    80000cc0:	4b4a5337          	lui	t1,0x4b4a5
    80000cc4:	9483031b          	addiw	t1,t1,-1720 # 4b4a4948 <_start-0x34b5b6b8>
    80000cc8:	02642f23          	sw	t1,62(s0)
    80000ccc:	03e46383          	lwu	t2,62(s0)
    80000cd0:	00730463          	beq	t1,t2,80000cd8 <reset_vector+0xc90>
    80000cd4:	0f80106f          	j	80001dcc <fail>
    80000cd8:	05300193          	li	gp,83
    80000cdc:	4f4e5337          	lui	t1,0x4f4e5
    80000ce0:	d4c3031b          	addiw	t1,t1,-692 # 4f4e4d4c <_start-0x30b1b2b4>
    80000ce4:	02642fa3          	sw	t1,63(s0)
    80000ce8:	03f46383          	lwu	t2,63(s0)
    80000cec:	00730463          	beq	t1,t2,80000cf4 <reset_vector+0xcac>
    80000cf0:	0dc0106f          	j	80001dcc <fail>
    80000cf4:	05400193          	li	gp,84
    80000cf8:	05756337          	lui	t1,0x5756
    80000cfc:	5553031b          	addiw	t1,t1,1365 # 5756555 <_start-0x7a8a9aab>
    80000d00:	00c31313          	slli	t1,t1,0xc
    80000d04:	45330313          	addi	t1,t1,1107
    80000d08:	00c31313          	slli	t1,t1,0xc
    80000d0c:	52530313          	addi	t1,t1,1317
    80000d10:	00c31313          	slli	t1,t1,0xc
    80000d14:	15030313          	addi	t1,t1,336
    80000d18:	02643ca3          	sd	t1,57(s0)
    80000d1c:	03943383          	ld	t2,57(s0)
    80000d20:	00730463          	beq	t1,t2,80000d28 <reset_vector+0xce0>
    80000d24:	0a80106f          	j	80001dcc <fail>
    80000d28:	05500193          	li	gp,85
    80000d2c:	017d8337          	lui	t1,0x17d8
    80000d30:	9753031b          	addiw	t1,t1,-1675 # 17d7975 <_start-0x7e82868b>
    80000d34:	00c31313          	slli	t1,t1,0xc
    80000d38:	71730313          	addi	t1,t1,1815
    80000d3c:	00d31313          	slli	t1,t1,0xd
    80000d40:	ad330313          	addi	t1,t1,-1325
    80000d44:	00d31313          	slli	t1,t1,0xd
    80000d48:	95830313          	addi	t1,t1,-1704
    80000d4c:	02643d23          	sd	t1,58(s0)
    80000d50:	03a43383          	ld	t2,58(s0)
    80000d54:	00730463          	beq	t1,t2,80000d5c <reset_vector+0xd14>
    80000d58:	0740106f          	j	80001dcc <fail>
    80000d5c:	05600193          	li	gp,86
    80000d60:	00ced337          	lui	t1,0xced
    80000d64:	ccb3031b          	addiw	t1,t1,-821 # cecccb <_start-0x7f313335>
    80000d68:	00d31313          	slli	t1,t1,0xd
    80000d6c:	91930313          	addi	t1,t1,-1767
    80000d70:	00d31313          	slli	t1,t1,0xd
    80000d74:	b1330313          	addi	t1,t1,-1261
    80000d78:	00d31313          	slli	t1,t1,0xd
    80000d7c:	16030313          	addi	t1,t1,352
    80000d80:	02643da3          	sd	t1,59(s0)
    80000d84:	03b43383          	ld	t2,59(s0)
    80000d88:	00730463          	beq	t1,t2,80000d90 <reset_vector+0xd48>
    80000d8c:	0400106f          	j	80001dcc <fail>
    80000d90:	05700193          	li	gp,87
    80000d94:	06f6e337          	lui	t1,0x6f6e
    80000d98:	6d73031b          	addiw	t1,t1,1751 # 6f6e6d7 <_start-0x79091929>
    80000d9c:	00c31313          	slli	t1,t1,0xc
    80000da0:	c6b30313          	addi	t1,t1,-917
    80000da4:	00c31313          	slli	t1,t1,0xc
    80000da8:	6a730313          	addi	t1,t1,1703
    80000dac:	00c31313          	slli	t1,t1,0xc
    80000db0:	96830313          	addi	t1,t1,-1688
    80000db4:	02643e23          	sd	t1,60(s0)
    80000db8:	03c43383          	ld	t2,60(s0)
    80000dbc:	00730463          	beq	t1,t2,80000dc4 <reset_vector+0xd7c>
    80000dc0:	00c0106f          	j	80001dcc <fail>
    80000dc4:	05800193          	li	gp,88
    80000dc8:	07776337          	lui	t1,0x7776
    80000dcc:	7573031b          	addiw	t1,t1,1879 # 7776757 <_start-0x788898a9>
    80000dd0:	00c31313          	slli	t1,t1,0xc
    80000dd4:	47330313          	addi	t1,t1,1139
    80000dd8:	00c31313          	slli	t1,t1,0xc
    80000ddc:	72730313          	addi	t1,t1,1831
    80000de0:	00c31313          	slli	t1,t1,0xc
    80000de4:	17030313          	addi	t1,t1,368
    80000de8:	02643ea3          	sd	t1,61(s0)
    80000dec:	03d43383          	ld	t2,61(s0)
    80000df0:	7c731ee3          	bne	t1,t2,80001dcc <fail>
    80000df4:	05900193          	li	gp,89
    80000df8:	00ff0337          	lui	t1,0xff0
    80000dfc:	cfb3031b          	addiw	t1,t1,-773 # fefcfb <_start-0x7f010305>
    80000e00:	00c31313          	slli	t1,t1,0xc
    80000e04:	f8f30313          	addi	t1,t1,-113
    80000e08:	00c31313          	slli	t1,t1,0xc
    80000e0c:	6f530313          	addi	t1,t1,1781
    80000e10:	00f31313          	slli	t1,t1,0xf
    80000e14:	97830313          	addi	t1,t1,-1672
    80000e18:	02643f23          	sd	t1,62(s0)
    80000e1c:	03e43383          	ld	t2,62(s0)
    80000e20:	7a7316e3          	bne	t1,t2,80001dcc <fail>
    80000e24:	05a00193          	li	gp,90
    80000e28:	fff0f337          	lui	t1,0xfff0f
    80000e2c:	0d13031b          	addiw	t1,t1,209 # fffffffffff0f0d1 <_end+0xffffffff7ff0bf51>
    80000e30:	00c31313          	slli	t1,t1,0xc
    80000e34:	b0930313          	addi	t1,t1,-1271
    80000e38:	01031313          	slli	t1,t1,0x10
    80000e3c:	70530313          	addi	t1,t1,1797
    80000e40:	00f31313          	slli	t1,t1,0xf
    80000e44:	18030313          	addi	t1,t1,384
    80000e48:	02643fa3          	sd	t1,63(s0)
    80000e4c:	03f43383          	ld	t2,63(s0)
    80000e50:	76731ee3          	bne	t1,t2,80001dcc <fail>
    80000e54:	05b00193          	li	gp,91
    80000e58:	0000a337          	lui	t1,0xa
    80000e5c:	9983031b          	addiw	t1,t1,-1640 # 9998 <_start-0x7fff6668>
    80000e60:	f9800393          	li	t2,-104
    80000e64:	006410a3          	sh	t1,1(s0)
    80000e68:	00140e03          	lb	t3,1(s0)
    80000e6c:	77c390e3          	bne	t2,t3,80001dcc <fail>
    80000e70:	05c00193          	li	gp,92
    80000e74:	0000a337          	lui	t1,0xa
    80000e78:	b9a3031b          	addiw	t1,t1,-1126 # 9b9a <_start-0x7fff6466>
    80000e7c:	f9b00393          	li	t2,-101
    80000e80:	006410a3          	sh	t1,1(s0)
    80000e84:	00240e03          	lb	t3,2(s0)
    80000e88:	75c392e3          	bne	t2,t3,80001dcc <fail>
    80000e8c:	05d00193          	li	gp,93
    80000e90:	0000a337          	lui	t1,0xa
    80000e94:	d9c3031b          	addiw	t1,t1,-612 # 9d9c <_start-0x7fff6264>
    80000e98:	09c00393          	li	t2,156
    80000e9c:	006410a3          	sh	t1,1(s0)
    80000ea0:	00144e03          	lbu	t3,1(s0)
    80000ea4:	73c394e3          	bne	t2,t3,80001dcc <fail>
    80000ea8:	05e00193          	li	gp,94
    80000eac:	0000a337          	lui	t1,0xa
    80000eb0:	f9e3031b          	addiw	t1,t1,-98 # 9f9e <_start-0x7fff6062>
    80000eb4:	09f00393          	li	t2,159
    80000eb8:	006410a3          	sh	t1,1(s0)
    80000ebc:	00244e03          	lbu	t3,2(s0)
    80000ec0:	71c396e3          	bne	t2,t3,80001dcc <fail>
    80000ec4:	05f00193          	li	gp,95
    80000ec8:	00052337          	lui	t1,0x52
    80000ecc:	d153031b          	addiw	t1,t1,-747 # 51d15 <_start-0x7ffae2eb>
    80000ed0:	00d31313          	slli	t1,t1,0xd
    80000ed4:	1a030313          	addi	t1,t1,416
    80000ed8:	fa000393          	li	t2,-96
    80000edc:	006420a3          	sw	t1,1(s0)
    80000ee0:	00140e03          	lb	t3,1(s0)
    80000ee4:	6fc394e3          	bne	t2,t3,80001dcc <fail>
    80000ee8:	06000193          	li	gp,96
    80000eec:	00054337          	lui	t1,0x54
    80000ef0:	d353031b          	addiw	t1,t1,-715 # 53d35 <_start-0x7ffac2cb>
    80000ef4:	00d31313          	slli	t1,t1,0xd
    80000ef8:	5a430313          	addi	t1,t1,1444
    80000efc:	0a500393          	li	t2,165
    80000f00:	00642123          	sw	t1,2(s0)
    80000f04:	00344e03          	lbu	t3,3(s0)
    80000f08:	6dc392e3          	bne	t2,t3,80001dcc <fail>
    80000f0c:	06100193          	li	gp,97
    80000f10:	000ac337          	lui	t1,0xac
    80000f14:	aab3031b          	addiw	t1,t1,-1365 # abaab <_start-0x7ff54555>
    80000f18:	00c31313          	slli	t1,t1,0xc
    80000f1c:	9a830313          	addi	t1,t1,-1624
    80000f20:	ffffb3b7          	lui	t2,0xffffb
    80000f24:	aa93839b          	addiw	t2,t2,-1367 # ffffffffffffaaa9 <_end+0xffffffff7fff7929>
    80000f28:	006421a3          	sw	t1,3(s0)
    80000f2c:	00441e03          	lh	t3,4(s0)
    80000f30:	69c39ee3          	bne	t2,t3,80001dcc <fail>
    80000f34:	06200193          	li	gp,98
    80000f38:	000b0337          	lui	t1,0xb0
    80000f3c:	aeb3031b          	addiw	t1,t1,-1301 # afaeb <_start-0x7ff50515>
    80000f40:	00c31313          	slli	t1,t1,0xc
    80000f44:	dac30313          	addi	t1,t1,-596
    80000f48:	0000b3b7          	lui	t2,0xb
    80000f4c:	fae3839b          	addiw	t2,t2,-82 # afae <_start-0x7fff5052>
    80000f50:	006421a3          	sw	t1,3(s0)
    80000f54:	00545e03          	lhu	t3,5(s0)
    80000f58:	67c39ae3          	bne	t2,t3,80001dcc <fail>
    80000f5c:	06300193          	li	gp,99
    80000f60:	fedee337          	lui	t1,0xfedee
    80000f64:	ad73031b          	addiw	t1,t1,-1321 # fffffffffededad7 <_end+0xffffffff7edea957>
    80000f68:	00c31313          	slli	t1,t1,0xc
    80000f6c:	d2d30313          	addi	t1,t1,-723
    80000f70:	00e31313          	slli	t1,t1,0xe
    80000f74:	b2b30313          	addi	t1,t1,-1237
    80000f78:	00c31313          	slli	t1,t1,0xc
    80000f7c:	1b030313          	addi	t1,t1,432
    80000f80:	fb600393          	li	t2,-74
    80000f84:	006430a3          	sd	t1,1(s0)
    80000f88:	00740e03          	lb	t3,7(s0)
    80000f8c:	65c390e3          	bne	t2,t3,80001dcc <fail>
    80000f90:	06400193          	li	gp,100
    80000f94:	feff0337          	lui	t1,0xfeff0
    80000f98:	af73031b          	addiw	t1,t1,-1289 # fffffffffefefaf7 <_end+0xffffffff7efec977>
    80000f9c:	00c31313          	slli	t1,t1,0xc
    80000fa0:	f2f30313          	addi	t1,t1,-209
    80000fa4:	00c31313          	slli	t1,t1,0xc
    80000fa8:	eeb30313          	addi	t1,t1,-277
    80000fac:	00e31313          	slli	t1,t1,0xe
    80000fb0:	9b830313          	addi	t1,t1,-1608
    80000fb4:	0b900393          	li	t2,185
    80000fb8:	00643123          	sd	t1,2(s0)
    80000fbc:	00344e03          	lbu	t3,3(s0)
    80000fc0:	61c396e3          	bne	t2,t3,80001dcc <fail>
    80000fc4:	06500193          	li	gp,101
    80000fc8:	ff1f2337          	lui	t1,0xff1f2
    80000fcc:	b173031b          	addiw	t1,t1,-1257 # ffffffffff1f1b17 <_end+0xffffffff7f1ee997>
    80000fd0:	00c31313          	slli	t1,t1,0xc
    80000fd4:	13130313          	addi	t1,t1,305
    80000fd8:	00c31313          	slli	t1,t1,0xc
    80000fdc:	f0b30313          	addi	t1,t1,-245
    80000fe0:	00e31313          	slli	t1,t1,0xe
    80000fe4:	1c030313          	addi	t1,t1,448
    80000fe8:	ffffc3b7          	lui	t2,0xffffc
    80000fec:	7c63839b          	addiw	t2,t2,1990 # ffffffffffffc7c6 <_end+0xffffffff7fff9646>
    80000ff0:	006431a3          	sd	t1,3(s0)
    80000ff4:	00941e03          	lh	t3,9(s0)
    80000ff8:	5dc39ae3          	bne	t2,t3,80001dcc <fail>
    80000ffc:	06600193          	li	gp,102
    80001000:	ff3f4337          	lui	t1,0xff3f4
    80001004:	b373031b          	addiw	t1,t1,-1225 # ffffffffff3f3b37 <_end+0xffffffff7f3f09b7>
    80001008:	00c31313          	slli	t1,t1,0xc
    8000100c:	33330313          	addi	t1,t1,819
    80001010:	00e31313          	slli	t1,t1,0xe
    80001014:	cad30313          	addi	t1,t1,-851
    80001018:	00c31313          	slli	t1,t1,0xc
    8000101c:	9c830313          	addi	t1,t1,-1592
    80001020:	0000d3b7          	lui	t2,0xd
    80001024:	ac93839b          	addiw	t2,t2,-1335 # cac9 <_start-0x7fff3537>
    80001028:	00643223          	sd	t1,4(s0)
    8000102c:	00545e03          	lhu	t3,5(s0)
    80001030:	59c39ee3          	bne	t2,t3,80001dcc <fail>
    80001034:	06700193          	li	gp,103
    80001038:	ff5f6337          	lui	t1,0xff5f6
    8000103c:	b573031b          	addiw	t1,t1,-1193 # ffffffffff5f5b57 <_end+0xffffffff7f5f29d7>
    80001040:	00c31313          	slli	t1,t1,0xc
    80001044:	53530313          	addi	t1,t1,1333
    80001048:	00e31313          	slli	t1,t1,0xe
    8000104c:	d2d30313          	addi	t1,t1,-723
    80001050:	00c31313          	slli	t1,t1,0xc
    80001054:	1d030313          	addi	t1,t1,464
    80001058:	d7d6d3b7          	lui	t2,0xd7d6d
    8000105c:	5d43839b          	addiw	t2,t2,1492 # ffffffffd7d6d5d4 <_end+0xffffffff57d6a454>
    80001060:	006432a3          	sd	t1,5(s0)
    80001064:	00942e03          	lw	t3,9(s0)
    80001068:	57c392e3          	bne	t2,t3,80001dcc <fail>
    8000106c:	06800193          	li	gp,104
    80001070:	ff7f8337          	lui	t1,0xff7f8
    80001074:	b773031b          	addiw	t1,t1,-1161 # ffffffffff7f7b77 <_end+0xffffffff7f7f49f7>
    80001078:	00c31313          	slli	t1,t1,0xc
    8000107c:	73730313          	addi	t1,t1,1847
    80001080:	00d31313          	slli	t1,t1,0xd
    80001084:	ed730313          	addi	t1,t1,-297
    80001088:	00d31313          	slli	t1,t1,0xd
    8000108c:	9d830313          	addi	t1,t1,-1576
    80001090:	dddce3b7          	lui	t2,0xdddce
    80001094:	bda3839b          	addiw	t2,t2,-1062 # ffffffffdddcdbda <_end+0xffffffff5ddcaa5a>
    80001098:	00643323          	sd	t1,6(s0)
    8000109c:	00842e03          	lw	t3,8(s0)
    800010a0:	53c396e3          	bne	t2,t3,80001dcc <fail>
    800010a4:	06900193          	li	gp,105
    800010a8:	fff3f337          	lui	t1,0xfff3f
    800010ac:	3733031b          	addiw	t1,t1,883 # fffffffffff3f373 <_end+0xffffffff7ff3c1f3>
    800010b0:	00f31313          	slli	t1,t1,0xf
    800010b4:	93930313          	addi	t1,t1,-1735
    800010b8:	00d31313          	slli	t1,t1,0xd
    800010bc:	f1730313          	addi	t1,t1,-233
    800010c0:	00d31313          	slli	t1,t1,0xd
    800010c4:	1e030313          	addi	t1,t1,480
    800010c8:	000723b7          	lui	t2,0x72
    800010cc:	71f3839b          	addiw	t2,t2,1823 # 7271f <_start-0x7ff8d8e1>
    800010d0:	00d39393          	slli	t2,t2,0xd
    800010d4:	2e138393          	addi	t2,t2,737
    800010d8:	006433a3          	sd	t1,7(s0)
    800010dc:	00846e03          	lwu	t3,8(s0)
    800010e0:	4fc396e3          	bne	t2,t3,80001dcc <fail>
    800010e4:	06a00193          	li	gp,106
    800010e8:	0000f337          	lui	t1,0xf
    800010ec:	9e83031b          	addiw	t1,t1,-1560 # e9e8 <_start-0x7fff1618>
    800010f0:	fe800393          	li	t2,-24
    800010f4:	00641fa3          	sh	t1,31(s0)
    800010f8:	01f40e03          	lb	t3,31(s0)
    800010fc:	4dc398e3          	bne	t2,t3,80001dcc <fail>
    80001100:	06b00193          	li	gp,107
    80001104:	0000f337          	lui	t1,0xf
    80001108:	bea3031b          	addiw	t1,t1,-1046 # ebea <_start-0x7fff1416>
    8000110c:	feb00393          	li	t2,-21
    80001110:	00641fa3          	sh	t1,31(s0)
    80001114:	02040e03          	lb	t3,32(s0)
    80001118:	4bc39ae3          	bne	t2,t3,80001dcc <fail>
    8000111c:	06c00193          	li	gp,108
    80001120:	0000f337          	lui	t1,0xf
    80001124:	dec3031b          	addiw	t1,t1,-532 # edec <_start-0x7fff1214>
    80001128:	0ec00393          	li	t2,236
    8000112c:	00641fa3          	sh	t1,31(s0)
    80001130:	01f44e03          	lbu	t3,31(s0)
    80001134:	49c39ce3          	bne	t2,t3,80001dcc <fail>
    80001138:	06d00193          	li	gp,109
    8000113c:	0000f337          	lui	t1,0xf
    80001140:	fee3031b          	addiw	t1,t1,-18 # efee <_start-0x7fff1012>
    80001144:	0ef00393          	li	t2,239
    80001148:	00641fa3          	sh	t1,31(s0)
    8000114c:	02044e03          	lbu	t3,32(s0)
    80001150:	47c39ee3          	bne	t2,t3,80001dcc <fail>
    80001154:	06e00193          	li	gp,110
    80001158:	000f4337          	lui	t1,0xf4
    8000115c:	f2f3031b          	addiw	t1,t1,-209 # f3f2f <_start-0x7ff0c0d1>
    80001160:	00c31313          	slli	t1,t1,0xc
    80001164:	1f030313          	addi	t1,t1,496
    80001168:	ff000393          	li	t2,-16
    8000116c:	00642ea3          	sw	t1,29(s0)
    80001170:	01d40e03          	lb	t3,29(s0)
    80001174:	45c39ce3          	bne	t2,t3,80001dcc <fail>
    80001178:	06f00193          	li	gp,111
    8000117c:	000f8337          	lui	t1,0xf8
    80001180:	f6f3031b          	addiw	t1,t1,-145 # f7f6f <_start-0x7ff08091>
    80001184:	00c31313          	slli	t1,t1,0xc
    80001188:	5f430313          	addi	t1,t1,1524
    8000118c:	0f600393          	li	t2,246
    80001190:	00642f23          	sw	t1,30(s0)
    80001194:	02044e03          	lbu	t3,32(s0)
    80001198:	43c39ae3          	bne	t2,t3,80001dcc <fail>
    8000119c:	07000193          	li	gp,112
    800011a0:	00010337          	lui	t1,0x10
    800011a4:	bfb3031b          	addiw	t1,t1,-1029 # fbfb <_start-0x7fff0405>
    800011a8:	01031313          	slli	t1,t1,0x10
    800011ac:	9f830313          	addi	t1,t1,-1544
    800011b0:	bfa00393          	li	t2,-1030
    800011b4:	00642ea3          	sw	t1,29(s0)
    800011b8:	01f41e03          	lh	t3,31(s0)
    800011bc:	41c398e3          	bne	t2,t3,80001dcc <fail>
    800011c0:	07100193          	li	gp,113
    800011c4:	00010337          	lui	t1,0x10
    800011c8:	fff3031b          	addiw	t1,t1,-1 # ffff <_start-0x7fff0001>
    800011cc:	01031313          	slli	t1,t1,0x10
    800011d0:	dfc30313          	addi	t1,t1,-516
    800011d4:	000103b7          	lui	t2,0x10
    800011d8:	dfc3839b          	addiw	t2,t2,-516 # fdfc <_start-0x7fff0204>
    800011dc:	00642fa3          	sw	t1,31(s0)
    800011e0:	01f45e03          	lhu	t3,31(s0)
    800011e4:	3fc394e3          	bne	t2,t3,80001dcc <fail>
    800011e8:	07200193          	li	gp,114
    800011ec:	01c18337          	lui	t1,0x1c18
    800011f0:	1413031b          	addiw	t1,t1,321 # 1c18141 <_start-0x7e3e7ebf>
    800011f4:	01131313          	slli	t1,t1,0x11
    800011f8:	18130313          	addi	t1,t1,385
    800011fc:	01131313          	slli	t1,t1,0x11
    80001200:	10030313          	addi	t1,t1,256
    80001204:	00700393          	li	t2,7
    80001208:	00643ca3          	sd	t1,25(s0)
    8000120c:	02040e03          	lb	t3,32(s0)
    80001210:	3bc39ee3          	bne	t2,t3,80001dcc <fail>
    80001214:	07300193          	li	gp,115
    80001218:	00f0e337          	lui	t1,0xf0e
    8000121c:	0d13031b          	addiw	t1,t1,209 # f0e0d1 <_start-0x7f0f1f2f>
    80001220:	00c31313          	slli	t1,t1,0xc
    80001224:	c0b30313          	addi	t1,t1,-1013
    80001228:	00c31313          	slli	t1,t1,0xc
    8000122c:	0a130313          	addi	t1,t1,161
    80001230:	00c31313          	slli	t1,t1,0xc
    80001234:	90830313          	addi	t1,t1,-1784
    80001238:	00f00393          	li	t2,15
    8000123c:	00643d23          	sd	t1,26(s0)
    80001240:	02144e03          	lbu	t3,33(s0)
    80001244:	39c394e3          	bne	t2,t3,80001dcc <fail>
    80001248:	07400193          	li	gp,116
    8000124c:	01716337          	lui	t1,0x1716
    80001250:	1513031b          	addiw	t1,t1,337 # 1716151 <_start-0x7e8e9eaf>
    80001254:	00c31313          	slli	t1,t1,0xc
    80001258:	41330313          	addi	t1,t1,1043
    8000125c:	00c31313          	slli	t1,t1,0xc
    80001260:	12130313          	addi	t1,t1,289
    80001264:	00c31313          	slli	t1,t1,0xc
    80001268:	11030313          	addi	t1,t1,272
    8000126c:	000013b7          	lui	t2,0x1
    80001270:	5143839b          	addiw	t2,t2,1300 # 1514 <_start-0x7fffeaec>
    80001274:	00643da3          	sd	t1,27(s0)
    80001278:	01f41e03          	lh	t3,31(s0)
    8000127c:	35c398e3          	bne	t2,t3,80001dcc <fail>
    80001280:	07500193          	li	gp,117
    80001284:	001f2337          	lui	t1,0x1f2
    80001288:	e1d3031b          	addiw	t1,t1,-483 # 1f1e1d <_start-0x7fe0e1e3>
    8000128c:	00e31313          	slli	t1,t1,0xe
    80001290:	70730313          	addi	t1,t1,1799
    80001294:	00d31313          	slli	t1,t1,0xd
    80001298:	8d130313          	addi	t1,t1,-1839
    8000129c:	00d31313          	slli	t1,t1,0xd
    800012a0:	91830313          	addi	t1,t1,-1768
    800012a4:	000023b7          	lui	t2,0x2
    800012a8:	c1b3839b          	addiw	t2,t2,-997 # 1c1b <_start-0x7fffe3e5>
    800012ac:	00643e23          	sd	t1,28(s0)
    800012b0:	01f45e03          	lhu	t3,31(s0)
    800012b4:	31c39ce3          	bne	t2,t3,80001dcc <fail>
    800012b8:	07600193          	li	gp,118
    800012bc:	009ca337          	lui	t1,0x9ca
    800012c0:	8953031b          	addiw	t1,t1,-1899 # 9c9895 <_start-0x7f63676b>
    800012c4:	00c31313          	slli	t1,t1,0xc
    800012c8:	90930313          	addi	t1,t1,-1783
    800012cc:	00d31313          	slli	t1,t1,0xd
    800012d0:	91130313          	addi	t1,t1,-1775
    800012d4:	00d31313          	slli	t1,t1,0xd
    800012d8:	12030313          	addi	t1,t1,288
    800012dc:	232223b7          	lui	t2,0x23222
    800012e0:	1203839b          	addiw	t2,t2,288 # 23222120 <_start-0x5cdddee0>
    800012e4:	00643ea3          	sd	t1,29(s0)
    800012e8:	01d42e03          	lw	t3,29(s0)
    800012ec:	2fc390e3          	bne	t2,t3,80001dcc <fail>
    800012f0:	07700193          	li	gp,119
    800012f4:	02f2e337          	lui	t1,0x2f2e
    800012f8:	2d33031b          	addiw	t1,t1,723 # 2f2e2d3 <_start-0x7d0d1d2d>
    800012fc:	00c31313          	slli	t1,t1,0xc
    80001300:	c2b30313          	addi	t1,t1,-981
    80001304:	00c31313          	slli	t1,t1,0xc
    80001308:	2a330313          	addi	t1,t1,675
    8000130c:	00c31313          	slli	t1,t1,0xc
    80001310:	92830313          	addi	t1,t1,-1752
    80001314:	2b2a33b7          	lui	t2,0x2b2a3
    80001318:	9283839b          	addiw	t2,t2,-1752 # 2b2a2928 <_start-0x54d5d6d8>
    8000131c:	00643f23          	sd	t1,30(s0)
    80001320:	01e42e03          	lw	t3,30(s0)
    80001324:	2bc394e3          	bne	t2,t3,80001dcc <fail>
    80001328:	07800193          	li	gp,120
    8000132c:	03736337          	lui	t1,0x3736
    80001330:	3533031b          	addiw	t1,t1,851 # 3736353 <_start-0x7c8c9cad>
    80001334:	00c31313          	slli	t1,t1,0xc
    80001338:	43330313          	addi	t1,t1,1075
    8000133c:	00c31313          	slli	t1,t1,0xc
    80001340:	32330313          	addi	t1,t1,803
    80001344:	00c31313          	slli	t1,t1,0xc
    80001348:	13030313          	addi	t1,t1,304
    8000134c:	333233b7          	lui	t2,0x33323
    80001350:	1303839b          	addiw	t2,t2,304 # 33323130 <_start-0x4ccdced0>
    80001354:	00643fa3          	sd	t1,31(s0)
    80001358:	01f46e03          	lwu	t3,31(s0)
    8000135c:	27c398e3          	bne	t2,t3,80001dcc <fail>
    80001360:	07900193          	li	gp,121
    80001364:	00005337          	lui	t1,0x5
    80001368:	9483031b          	addiw	t1,t1,-1720 # 4948 <_start-0x7fffb6b8>
    8000136c:	04800393          	li	t2,72
    80001370:	02641fa3          	sh	t1,63(s0)
    80001374:	03f40e03          	lb	t3,63(s0)
    80001378:	25c39ae3          	bne	t2,t3,80001dcc <fail>
    8000137c:	07a00193          	li	gp,122
    80001380:	00005337          	lui	t1,0x5
    80001384:	b4a3031b          	addiw	t1,t1,-1206 # 4b4a <_start-0x7fffb4b6>
    80001388:	04b00393          	li	t2,75
    8000138c:	02641fa3          	sh	t1,63(s0)
    80001390:	04040e03          	lb	t3,64(s0)
    80001394:	23c39ce3          	bne	t2,t3,80001dcc <fail>
    80001398:	07b00193          	li	gp,123
    8000139c:	00005337          	lui	t1,0x5
    800013a0:	d4c3031b          	addiw	t1,t1,-692 # 4d4c <_start-0x7fffb2b4>
    800013a4:	04c00393          	li	t2,76
    800013a8:	02641fa3          	sh	t1,63(s0)
    800013ac:	03f44e03          	lbu	t3,63(s0)
    800013b0:	21c39ee3          	bne	t2,t3,80001dcc <fail>
    800013b4:	07c00193          	li	gp,124
    800013b8:	00005337          	lui	t1,0x5
    800013bc:	f4e3031b          	addiw	t1,t1,-178 # 4f4e <_start-0x7fffb0b2>
    800013c0:	04f00393          	li	t2,79
    800013c4:	02641fa3          	sh	t1,63(s0)
    800013c8:	04044e03          	lbu	t3,64(s0)
    800013cc:	21c390e3          	bne	t2,t3,80001dcc <fail>
    800013d0:	07d00193          	li	gp,125
    800013d4:	53525337          	lui	t1,0x53525
    800013d8:	1503031b          	addiw	t1,t1,336 # 53525150 <_start-0x2cadaeb0>
    800013dc:	05000393          	li	t2,80
    800013e0:	02642ea3          	sw	t1,61(s0)
    800013e4:	03d40e03          	lb	t3,61(s0)
    800013e8:	1fc392e3          	bne	t2,t3,80001dcc <fail>
    800013ec:	07e00193          	li	gp,126
    800013f0:	57565337          	lui	t1,0x57565
    800013f4:	5543031b          	addiw	t1,t1,1364 # 57565554 <_start-0x28a9aaac>
    800013f8:	05600393          	li	t2,86
    800013fc:	02642f23          	sw	t1,62(s0)
    80001400:	04044e03          	lbu	t3,64(s0)
    80001404:	1dc394e3          	bne	t2,t3,80001dcc <fail>
    80001408:	07f00193          	li	gp,127
    8000140c:	5b5a6337          	lui	t1,0x5b5a6
    80001410:	9583031b          	addiw	t1,t1,-1704 # 5b5a5958 <_start-0x24a5a6a8>
    80001414:	000063b7          	lui	t2,0x6
    80001418:	b5a3839b          	addiw	t2,t2,-1190 # 5b5a <_start-0x7fffa4a6>
    8000141c:	02642ea3          	sw	t1,61(s0)
    80001420:	03f41e03          	lh	t3,63(s0)
    80001424:	1bc394e3          	bne	t2,t3,80001dcc <fail>
    80001428:	08000193          	li	gp,128
    8000142c:	5f5e6337          	lui	t1,0x5f5e6
    80001430:	d5c3031b          	addiw	t1,t1,-676 # 5f5e5d5c <_start-0x20a1a2a4>
    80001434:	000063b7          	lui	t2,0x6
    80001438:	d5c3839b          	addiw	t2,t2,-676 # 5d5c <_start-0x7fffa2a4>
    8000143c:	02642fa3          	sw	t1,63(s0)
    80001440:	03f45e03          	lhu	t3,63(s0)
    80001444:	19c394e3          	bne	t2,t3,80001dcc <fail>
    80001448:	08100193          	li	gp,129
    8000144c:	00ced337          	lui	t1,0xced
    80001450:	ccb3031b          	addiw	t1,t1,-821 # cecccb <_start-0x7f313335>
    80001454:	00d31313          	slli	t1,t1,0xd
    80001458:	91930313          	addi	t1,t1,-1767
    8000145c:	00d31313          	slli	t1,t1,0xd
    80001460:	b1330313          	addi	t1,t1,-1261
    80001464:	00d31313          	slli	t1,t1,0xd
    80001468:	16030313          	addi	t1,t1,352
    8000146c:	06700393          	li	t2,103
    80001470:	02643ca3          	sd	t1,57(s0)
    80001474:	04040e03          	lb	t3,64(s0)
    80001478:	15c39ae3          	bne	t2,t3,80001dcc <fail>
    8000147c:	08200193          	li	gp,130
    80001480:	06f6e337          	lui	t1,0x6f6e
    80001484:	6d73031b          	addiw	t1,t1,1751 # 6f6e6d7 <_start-0x79091929>
    80001488:	00c31313          	slli	t1,t1,0xc
    8000148c:	c6b30313          	addi	t1,t1,-917
    80001490:	00c31313          	slli	t1,t1,0xc
    80001494:	6a730313          	addi	t1,t1,1703
    80001498:	00c31313          	slli	t1,t1,0xc
    8000149c:	96830313          	addi	t1,t1,-1688
    800014a0:	06f00393          	li	t2,111
    800014a4:	02643d23          	sd	t1,58(s0)
    800014a8:	04144e03          	lbu	t3,65(s0)
    800014ac:	13c390e3          	bne	t2,t3,80001dcc <fail>
    800014b0:	08300193          	li	gp,131
    800014b4:	07776337          	lui	t1,0x7776
    800014b8:	7573031b          	addiw	t1,t1,1879 # 7776757 <_start-0x788898a9>
    800014bc:	00c31313          	slli	t1,t1,0xc
    800014c0:	47330313          	addi	t1,t1,1139
    800014c4:	00c31313          	slli	t1,t1,0xc
    800014c8:	72730313          	addi	t1,t1,1831
    800014cc:	00c31313          	slli	t1,t1,0xc
    800014d0:	17030313          	addi	t1,t1,368
    800014d4:	000073b7          	lui	t2,0x7
    800014d8:	5743839b          	addiw	t2,t2,1396 # 7574 <_start-0x7fff8a8c>
    800014dc:	02643da3          	sd	t1,59(s0)
    800014e0:	03f41e03          	lh	t3,63(s0)
    800014e4:	0fc394e3          	bne	t2,t3,80001dcc <fail>
    800014e8:	08400193          	li	gp,132
    800014ec:	00ff0337          	lui	t1,0xff0
    800014f0:	cfb3031b          	addiw	t1,t1,-773 # fefcfb <_start-0x7f010305>
    800014f4:	00c31313          	slli	t1,t1,0xc
    800014f8:	f8f30313          	addi	t1,t1,-113
    800014fc:	00c31313          	slli	t1,t1,0xc
    80001500:	6f530313          	addi	t1,t1,1781
    80001504:	00f31313          	slli	t1,t1,0xf
    80001508:	97830313          	addi	t1,t1,-1672
    8000150c:	000083b7          	lui	t2,0x8
    80001510:	c7b3839b          	addiw	t2,t2,-901 # 7c7b <_start-0x7fff8385>
    80001514:	02643e23          	sd	t1,60(s0)
    80001518:	03f45e03          	lhu	t3,63(s0)
    8000151c:	0bc398e3          	bne	t2,t3,80001dcc <fail>
    80001520:	08500193          	li	gp,133
    80001524:	fff0f337          	lui	t1,0xfff0f
    80001528:	0d13031b          	addiw	t1,t1,209 # fffffffffff0f0d1 <_end+0xffffffff7ff0bf51>
    8000152c:	00c31313          	slli	t1,t1,0xc
    80001530:	b0930313          	addi	t1,t1,-1271
    80001534:	01031313          	slli	t1,t1,0x10
    80001538:	70530313          	addi	t1,t1,1797
    8000153c:	00f31313          	slli	t1,t1,0xf
    80001540:	18030313          	addi	t1,t1,384
    80001544:	838283b7          	lui	t2,0x83828
    80001548:	1803839b          	addiw	t2,t2,384 # ffffffff83828180 <_end+0xffffffff03825000>
    8000154c:	02643ea3          	sd	t1,61(s0)
    80001550:	03d42e03          	lw	t3,61(s0)
    80001554:	07c39ce3          	bne	t2,t3,80001dcc <fail>
    80001558:	08600193          	li	gp,134
    8000155c:	ff1f2337          	lui	t1,0xff1f2
    80001560:	d1b3031b          	addiw	t1,t1,-741 # ffffffffff1f1d1b <_end+0xffffffff7f1eeb9b>
    80001564:	00d31313          	slli	t1,t1,0xd
    80001568:	32330313          	addi	t1,t1,803
    8000156c:	00e31313          	slli	t1,t1,0xe
    80001570:	8a930313          	addi	t1,t1,-1879
    80001574:	00c31313          	slli	t1,t1,0xc
    80001578:	98830313          	addi	t1,t1,-1656
    8000157c:	8b8a93b7          	lui	t2,0x8b8a9
    80001580:	9883839b          	addiw	t2,t2,-1656 # ffffffff8b8a8988 <_end+0xffffffff0b8a5808>
    80001584:	02643f23          	sd	t1,62(s0)
    80001588:	03e42e03          	lw	t3,62(s0)
    8000158c:	05c390e3          	bne	t2,t3,80001dcc <fail>
    80001590:	08700193          	li	gp,135
    80001594:	ff2f3337          	lui	t1,0xff2f3
    80001598:	d2b3031b          	addiw	t1,t1,-725 # ffffffffff2f2d2b <_end+0xffffffff7f2efbab>
    8000159c:	00d31313          	slli	t1,t1,0xd
    800015a0:	52530313          	addi	t1,t1,1317
    800015a4:	00e31313          	slli	t1,t1,0xe
    800015a8:	92930313          	addi	t1,t1,-1751
    800015ac:	00c31313          	slli	t1,t1,0xc
    800015b0:	19030313          	addi	t1,t1,400
    800015b4:	000943b7          	lui	t2,0x94
    800015b8:	9293839b          	addiw	t2,t2,-1751 # 93929 <_start-0x7ff6c6d7>
    800015bc:	00c39393          	slli	t2,t2,0xc
    800015c0:	19038393          	addi	t2,t2,400
    800015c4:	02643fa3          	sd	t1,63(s0)
    800015c8:	03f46e03          	lwu	t3,63(s0)
    800015cc:	01c390e3          	bne	t2,t3,80001dcc <fail>
    800015d0:	08800193          	li	gp,136
    800015d4:	09800313          	li	t1,152
    800015d8:	ffffc3b7          	lui	t2,0xffffc
    800015dc:	8983839b          	addiw	t2,t2,-1896 # ffffffffffffb898 <_end+0xffffffff7fff8718>
    800015e0:	006400a3          	sb	t1,1(s0)
    800015e4:	00141e03          	lh	t3,1(s0)
    800015e8:	7fc39263          	bne	t2,t3,80001dcc <fail>
    800015ec:	08900193          	li	gp,137
    800015f0:	09900313          	li	t1,153
    800015f4:	0000a3b7          	lui	t2,0xa
    800015f8:	9983839b          	addiw	t2,t2,-1640 # 9998 <_start-0x7fff6668>
    800015fc:	00640123          	sb	t1,2(s0)
    80001600:	00145e03          	lhu	t3,1(s0)
    80001604:	7dc39463          	bne	t2,t3,80001dcc <fail>
    80001608:	08a00193          	li	gp,138
    8000160c:	0000a337          	lui	t1,0xa
    80001610:	b9a3031b          	addiw	t1,t1,-1126 # 9b9a <_start-0x7fff6466>
    80001614:	c8c0a3b7          	lui	t2,0xc8c0a
    80001618:	b9a3839b          	addiw	t2,t2,-1126 # ffffffffc8c09b9a <_end+0xffffffff48c06a1a>
    8000161c:	006410a3          	sh	t1,1(s0)
    80001620:	00142e03          	lw	t3,1(s0)
    80001624:	7bc39463          	bne	t2,t3,80001dcc <fail>
    80001628:	08b00193          	li	gp,139
    8000162c:	0000a337          	lui	t1,0xa
    80001630:	d9c3031b          	addiw	t1,t1,-612 # 9d9c <_start-0x7fff6264>
    80001634:	d09da3b7          	lui	t2,0xd09da
    80001638:	c9b3839b          	addiw	t2,t2,-869 # ffffffffd09d9c9b <_end+0xffffffff509d6b1b>
    8000163c:	006411a3          	sh	t1,3(s0)
    80001640:	00242e03          	lw	t3,2(s0)
    80001644:	79c39463          	bne	t2,t3,80001dcc <fail>
    80001648:	08c00193          	li	gp,140
    8000164c:	0000a337          	lui	t1,0xa
    80001650:	f9e3031b          	addiw	t1,t1,-98 # 9f9e <_start-0x7fff6062>
    80001654:	9f9ea3b7          	lui	t2,0x9f9ea
    80001658:	d9c3839b          	addiw	t2,t2,-612 # ffffffff9f9e9d9c <_end+0xffffffff1f9e6c1c>
    8000165c:	006412a3          	sh	t1,5(s0)
    80001660:	00342e03          	lw	t3,3(s0)
    80001664:	77c39463          	bne	t2,t3,80001dcc <fail>
    80001668:	08d00193          	li	gp,141
    8000166c:	0a000313          	li	t1,160
    80001670:	0004f3b7          	lui	t2,0x4f
    80001674:	ce53839b          	addiw	t2,t2,-795 # 4ece5 <_start-0x7ffb131b>
    80001678:	00d39393          	slli	t2,t2,0xd
    8000167c:	09a38393          	addi	t2,t2,154
    80001680:	00640123          	sb	t1,2(s0)
    80001684:	00146e03          	lwu	t3,1(s0)
    80001688:	75c39263          	bne	t2,t3,80001dcc <fail>
    8000168c:	08e00193          	li	gp,142
    80001690:	0000a337          	lui	t1,0xa
    80001694:	2a13031b          	addiw	t1,t1,673 # a2a1 <_start-0x7fff5d5f>
    80001698:	0004f3b7          	lui	t2,0x4f
    8000169c:	5153839b          	addiw	t2,t2,1301 # 4f515 <_start-0x7ffb0aeb>
    800016a0:	00d39393          	slli	t2,t2,0xd
    800016a4:	1a038393          	addi	t2,t2,416
    800016a8:	006411a3          	sh	t1,3(s0)
    800016ac:	00246e03          	lwu	t3,2(s0)
    800016b0:	71c39e63          	bne	t2,t3,80001dcc <fail>
    800016b4:	08f00193          	li	gp,143
    800016b8:	0000a337          	lui	t1,0xa
    800016bc:	4a33031b          	addiw	t1,t1,1187 # a4a3 <_start-0x7fff5b5d>
    800016c0:	000523b7          	lui	t2,0x52
    800016c4:	51d3839b          	addiw	t2,t2,1309 # 5251d <_start-0x7ffadae3>
    800016c8:	00d39393          	slli	t2,t2,0xd
    800016cc:	2a138393          	addi	t2,t2,673
    800016d0:	006412a3          	sh	t1,5(s0)
    800016d4:	00346e03          	lwu	t3,3(s0)
    800016d8:	6fc39a63          	bne	t2,t3,80001dcc <fail>
    800016dc:	09000193          	li	gp,144
    800016e0:	0a500313          	li	t1,165
    800016e4:	ff0f03b7          	lui	t2,0xff0f0
    800016e8:	5253839b          	addiw	t2,t2,1317 # ffffffffff0f0525 <_end+0xffffffff7f0ed3a5>
    800016ec:	00c39393          	slli	t2,t2,0xc
    800016f0:	1d138393          	addi	t2,t2,465
    800016f4:	00c39393          	slli	t2,t2,0xc
    800016f8:	50d38393          	addi	t2,t2,1293
    800016fc:	00d39393          	slli	t2,t2,0xd
    80001700:	59a38393          	addi	t2,t2,1434
    80001704:	00640123          	sb	t1,2(s0)
    80001708:	00143e03          	ld	t3,1(s0)
    8000170c:	6dc39063          	bne	t2,t3,80001dcc <fail>
    80001710:	09100193          	li	gp,145
    80001714:	0000a337          	lui	t1,0xa
    80001718:	7a63031b          	addiw	t1,t1,1958 # a7a6 <_start-0x7fff585a>
    8000171c:	ff8aa3b7          	lui	t2,0xff8aa
    80001720:	e9b3839b          	addiw	t2,t2,-357 # ffffffffff8a9e9b <_end+0xffffffff7f8a6d1b>
    80001724:	00c39393          	slli	t2,t2,0xc
    80001728:	92938393          	addi	t2,t2,-1751
    8000172c:	00d39393          	slli	t2,t2,0xd
    80001730:	d1538393          	addi	t2,t2,-747
    80001734:	00d39393          	slli	t2,t2,0xd
    80001738:	1a538393          	addi	t2,t2,421
    8000173c:	006413a3          	sh	t1,7(s0)
    80001740:	00243e03          	ld	t3,2(s0)
    80001744:	69c39463          	bne	t2,t3,80001dcc <fail>
    80001748:	09200193          	li	gp,146
    8000174c:	0000b337          	lui	t1,0xb
    80001750:	9a83031b          	addiw	t1,t1,-1624 # a9a8 <_start-0x7fff5658>
    80001754:	fea6a3b7          	lui	t2,0xfea6a
    80001758:	29f3839b          	addiw	t2,t2,671 # fffffffffea6a29f <_end+0xffffffff7ea6711f>
    8000175c:	00c39393          	slli	t2,t2,0xc
    80001760:	9a938393          	addi	t2,t2,-1623
    80001764:	00d39393          	slli	t2,t2,0xd
    80001768:	51d38393          	addi	t2,t2,1309
    8000176c:	00d39393          	slli	t2,t2,0xd
    80001770:	2a138393          	addi	t2,t2,673
    80001774:	006414a3          	sh	t1,9(s0)
    80001778:	00343e03          	ld	t3,3(s0)
    8000177c:	65c39863          	bne	t2,t3,80001dcc <fail>
    80001780:	09300193          	li	gp,147
    80001784:	000ae337          	lui	t1,0xae
    80001788:	acb3031b          	addiw	t1,t1,-1333 # adacb <_start-0x7ff52535>
    8000178c:	00c31313          	slli	t1,t1,0xc
    80001790:	baa30313          	addi	t1,t1,-1110
    80001794:	fe4aa3b7          	lui	t2,0xfe4aa
    80001798:	a8b3839b          	addiw	t2,t2,-1397 # fffffffffe4a9a8b <_end+0xffffffff7e4a690b>
    8000179c:	00c39393          	slli	t2,t2,0xc
    800017a0:	dad38393          	addi	t2,t2,-595
    800017a4:	00c39393          	slli	t2,t2,0xc
    800017a8:	abb38393          	addi	t2,t2,-1349
    800017ac:	00c39393          	slli	t2,t2,0xc
    800017b0:	aa238393          	addi	t2,t2,-1374
    800017b4:	006422a3          	sw	t1,5(s0)
    800017b8:	00443e03          	ld	t3,4(s0)
    800017bc:	61c39863          	bne	t2,t3,80001dcc <fail>
    800017c0:	09400193          	li	gp,148
    800017c4:	000b2337          	lui	t1,0xb2
    800017c8:	b0b3031b          	addiw	t1,t1,-1269 # b1b0b <_start-0x7ff4e4f5>
    800017cc:	00c31313          	slli	t1,t1,0xc
    800017d0:	fae30313          	addi	t1,t1,-82
    800017d4:	fff2f3b7          	lui	t2,0xfff2f
    800017d8:	2593839b          	addiw	t2,t2,601 # fffffffffff2f259 <_end+0xffffffff7ff2c0d9>
    800017dc:	00d39393          	slli	t2,t2,0xd
    800017e0:	b0b38393          	addi	t2,t2,-1269
    800017e4:	01039393          	slli	t2,t2,0x10
    800017e8:	aeb38393          	addi	t2,t2,-1301
    800017ec:	00c39393          	slli	t2,t2,0xc
    800017f0:	baa38393          	addi	t2,t2,-1110
    800017f4:	006423a3          	sw	t1,7(s0)
    800017f8:	00543e03          	ld	t3,5(s0)
    800017fc:	5dc39863          	bne	t2,t3,80001dcc <fail>
    80001800:	09500193          	li	gp,149
    80001804:	000b6337          	lui	t1,0xb6
    80001808:	b4b3031b          	addiw	t1,t1,-1205 # b5b4b <_start-0x7ff4a4b5>
    8000180c:	00c31313          	slli	t1,t1,0xc
    80001810:	3b230313          	addi	t1,t1,946
    80001814:	fe6b63b7          	lui	t2,0xfe6b6
    80001818:	b4b3839b          	addiw	t2,t2,-1205 # fffffffffe6b5b4b <_end+0xffffffff7e6b29cb>
    8000181c:	00c39393          	slli	t2,t2,0xc
    80001820:	3b338393          	addi	t2,t2,947
    80001824:	00c39393          	slli	t2,t2,0xc
    80001828:	afb38393          	addi	t2,t2,-1285
    8000182c:	00c39393          	slli	t2,t2,0xc
    80001830:	eab38393          	addi	t2,t2,-341
    80001834:	006424a3          	sw	t1,9(s0)
    80001838:	00643e03          	ld	t3,6(s0)
    8000183c:	59c39863          	bne	t2,t3,80001dcc <fail>
    80001840:	09600193          	li	gp,150
    80001844:	000ba337          	lui	t1,0xba
    80001848:	b8b3031b          	addiw	t1,t1,-1141 # b9b8b <_start-0x7ff46475>
    8000184c:	00c31313          	slli	t1,t1,0xc
    80001850:	7b630313          	addi	t1,t1,1974
    80001854:	fee6e3b7          	lui	t2,0xfee6e
    80001858:	2df3839b          	addiw	t2,t2,735 # fffffffffee6e2df <_end+0xffffffff7ee6b15f>
    8000185c:	00c39393          	slli	t2,t2,0xc
    80001860:	dad38393          	addi	t2,t2,-595
    80001864:	00e39393          	slli	t2,t2,0xe
    80001868:	b2b38393          	addi	t2,t2,-1237
    8000186c:	00c39393          	slli	t2,t2,0xc
    80001870:	fae38393          	addi	t2,t2,-82
    80001874:	006425a3          	sw	t1,11(s0)
    80001878:	00743e03          	ld	t3,7(s0)
    8000187c:	55c39863          	bne	t2,t3,80001dcc <fail>
    80001880:	09700193          	li	gp,151
    80001884:	0ba00313          	li	t1,186
    80001888:	000033b7          	lui	t2,0x3
    8000188c:	1ba3839b          	addiw	t2,t2,442 # 31ba <_start-0x7fffce46>
    80001890:	00640fa3          	sb	t1,31(s0)
    80001894:	01f41e03          	lh	t3,31(s0)
    80001898:	53c39a63          	bne	t2,t3,80001dcc <fail>
    8000189c:	09800193          	li	gp,152
    800018a0:	0bb00313          	li	t1,187
    800018a4:	0000c3b7          	lui	t2,0xc
    800018a8:	bba3839b          	addiw	t2,t2,-1094 # bbba <_start-0x7fff4446>
    800018ac:	02640023          	sb	t1,32(s0)
    800018b0:	01f45e03          	lhu	t3,31(s0)
    800018b4:	51c39c63          	bne	t2,t3,80001dcc <fail>
    800018b8:	09900193          	li	gp,153
    800018bc:	0000c337          	lui	t1,0xc
    800018c0:	dbc3031b          	addiw	t1,t1,-580 # bdbc <_start-0x7fff4244>
    800018c4:	32bbc3b7          	lui	t2,0x32bbc
    800018c8:	dbc3839b          	addiw	t2,t2,-580 # 32bbbdbc <_start-0x4d444244>
    800018cc:	00641f23          	sh	t1,30(s0)
    800018d0:	01e42e03          	lw	t3,30(s0)
    800018d4:	4fc39c63          	bne	t2,t3,80001dcc <fail>
    800018d8:	09a00193          	li	gp,154
    800018dc:	0000c337          	lui	t1,0xc
    800018e0:	fbe3031b          	addiw	t1,t1,-66 # bfbe <_start-0x7fff4042>
    800018e4:	32bfc3b7          	lui	t2,0x32bfc
    800018e8:	ebc3839b          	addiw	t2,t2,-324 # 32bfbebc <_start-0x4d404144>
    800018ec:	00641fa3          	sh	t1,31(s0)
    800018f0:	01e42e03          	lw	t3,30(s0)
    800018f4:	4dc39c63          	bne	t2,t3,80001dcc <fail>
    800018f8:	09b00193          	li	gp,155
    800018fc:	0000c337          	lui	t1,0xc
    80001900:	1c03031b          	addiw	t1,t1,448 # c1c0 <_start-0x7fff3e40>
    80001904:	c1c0c3b7          	lui	t2,0xc1c0c
    80001908:	ebc3839b          	addiw	t2,t2,-324 # ffffffffc1c0bebc <_end+0xffffffff41c08d3c>
    8000190c:	02641023          	sh	t1,32(s0)
    80001910:	01e42e03          	lw	t3,30(s0)
    80001914:	4bc39c63          	bne	t2,t3,80001dcc <fail>
    80001918:	09c00193          	li	gp,156
    8000191c:	0c200313          	li	t1,194
    80001920:	33c1c3b7          	lui	t2,0x33c1c
    80001924:	2be3839b          	addiw	t2,t2,702 # 33c1c2be <_start-0x4c3e3d42>
    80001928:	02640023          	sb	t1,32(s0)
    8000192c:	01f46e03          	lwu	t3,31(s0)
    80001930:	49c39e63          	bne	t2,t3,80001dcc <fail>
    80001934:	09d00193          	li	gp,157
    80001938:	0000c337          	lui	t1,0xc
    8000193c:	4c33031b          	addiw	t1,t1,1219 # c4c3 <_start-0x7fff3b3d>
    80001940:	000313b7          	lui	t2,0x31
    80001944:	30f3839b          	addiw	t2,t2,783 # 3130f <_start-0x7ffcecf1>
    80001948:	00e39393          	slli	t2,t2,0xe
    8000194c:	c2038393          	addi	t2,t2,-992
    80001950:	00641fa3          	sh	t1,31(s0)
    80001954:	01d46e03          	lwu	t3,29(s0)
    80001958:	47c39a63          	bne	t2,t3,80001dcc <fail>
    8000195c:	09e00193          	li	gp,158
    80001960:	0000c337          	lui	t1,0xc
    80001964:	6c53031b          	addiw	t1,t1,1733 # c6c5 <_start-0x7fff393b>
    80001968:	000323b7          	lui	t2,0x32
    8000196c:	b173839b          	addiw	t2,t2,-1257 # 31b17 <_start-0x7ffce4e9>
    80001970:	00e39393          	slli	t2,t2,0xe
    80001974:	3bc38393          	addi	t2,t2,956
    80001978:	02641023          	sh	t1,32(s0)
    8000197c:	01e46e03          	lwu	t3,30(s0)
    80001980:	45c39663          	bne	t2,t3,80001dcc <fail>
    80001984:	09f00193          	li	gp,159
    80001988:	0c700313          	li	t1,199
    8000198c:	fff1f3b7          	lui	t2,0xfff1f
    80001990:	0ef3839b          	addiw	t2,t2,239 # fffffffffff1f0ef <_end+0xffffffff7ff1bf6f>
    80001994:	00f39393          	slli	t2,t2,0xf
    80001998:	40338393          	addi	t2,t2,1027
    8000199c:	00f39393          	slli	t2,t2,0xf
    800019a0:	10138393          	addi	t2,t2,257
    800019a4:	00c39393          	slli	t2,t2,0xc
    800019a8:	80038393          	addi	t2,t2,-2048
    800019ac:	02640023          	sb	t1,32(s0)
    800019b0:	01943e03          	ld	t3,25(s0)
    800019b4:	41c39c63          	bne	t2,t3,80001dcc <fail>
    800019b8:	0a000193          	li	gp,160
    800019bc:	0000d337          	lui	t1,0xd
    800019c0:	9c83031b          	addiw	t1,t1,-1592 # c9c8 <_start-0x7fff3638>
    800019c4:	fff8e3b7          	lui	t2,0xfff8e
    800019c8:	9393839b          	addiw	t2,t2,-1735 # fffffffffff8d939 <_end+0xffffffff7ff8a7b9>
    800019cc:	00e39393          	slli	t2,t2,0xe
    800019d0:	5e138393          	addi	t2,t2,1505
    800019d4:	01139393          	slli	t2,t2,0x11
    800019d8:	18138393          	addi	t2,t2,385
    800019dc:	00c39393          	slli	t2,t2,0xc
    800019e0:	00838393          	addi	t2,t2,8
    800019e4:	00641fa3          	sh	t1,31(s0)
    800019e8:	01a43e03          	ld	t3,26(s0)
    800019ec:	3fc39063          	bne	t2,t3,80001dcc <fail>
    800019f0:	0a100193          	li	gp,161
    800019f4:	0000d337          	lui	t1,0xd
    800019f8:	bca3031b          	addiw	t1,t1,-1078 # cbca <_start-0x7fff3436>
    800019fc:	00cf23b7          	lui	t2,0xcf2
    80001a00:	b2f3839b          	addiw	t2,t2,-1233 # cf1b2f <_start-0x7f30e4d1>
    80001a04:	00c39393          	slli	t2,t2,0xc
    80001a08:	2af38393          	addi	t2,t2,687
    80001a0c:	00d39393          	slli	t2,t2,0xd
    80001a10:	10138393          	addi	t2,t2,257
    80001a14:	00d39393          	slli	t2,t2,0xd
    80001a18:	81038393          	addi	t2,t2,-2032
    80001a1c:	00641fa3          	sh	t1,31(s0)
    80001a20:	01b43e03          	ld	t3,27(s0)
    80001a24:	3bc39463          	bne	t2,t3,80001dcc <fail>
    80001a28:	0a200193          	li	gp,162
    80001a2c:	000d0337          	lui	t1,0xd0
    80001a30:	ced3031b          	addiw	t1,t1,-787 # cfced <_start-0x7ff30313>
    80001a34:	00c31313          	slli	t1,t1,0xc
    80001a38:	dcc30313          	addi	t1,t1,-564
    80001a3c:	ff3f43b7          	lui	t2,0xff3f4
    80001a40:	b373839b          	addiw	t2,t2,-1225 # ffffffffff3f3b37 <_end+0xffffffff7f3f09b7>
    80001a44:	00d39393          	slli	t2,t2,0xd
    80001a48:	66538393          	addi	t2,t2,1637
    80001a4c:	00c39393          	slli	t2,t2,0xc
    80001a50:	5e138393          	addi	t2,t2,1505
    80001a54:	00d39393          	slli	t2,t2,0xd
    80001a58:	01838393          	addi	t2,t2,24
    80001a5c:	02642023          	sw	t1,32(s0)
    80001a60:	01c43e03          	ld	t3,28(s0)
    80001a64:	37c39463          	bne	t2,t3,80001dcc <fail>
    80001a68:	0a300193          	li	gp,163
    80001a6c:	000d4337          	lui	t1,0xd4
    80001a70:	d2d3031b          	addiw	t1,t1,-723 # d3d2d <_start-0x7ff2c2d3>
    80001a74:	00c31313          	slli	t1,t1,0xc
    80001a78:	1d030313          	addi	t1,t1,464
    80001a7c:	000d73b7          	lui	t2,0xd7
    80001a80:	3f53839b          	addiw	t2,t2,1013 # d73f5 <_start-0x7ff28c0b>
    80001a84:	00e39393          	slli	t2,t2,0xe
    80001a88:	d2d38393          	addi	t2,t2,-723
    80001a8c:	00e39393          	slli	t2,t2,0xe
    80001a90:	74338393          	addi	t2,t2,1859
    80001a94:	00e39393          	slli	t2,t2,0xe
    80001a98:	c2038393          	addi	t2,t2,-992
    80001a9c:	00642fa3          	sw	t1,31(s0)
    80001aa0:	01d43e03          	ld	t3,29(s0)
    80001aa4:	33c39463          	bne	t2,t3,80001dcc <fail>
    80001aa8:	0a400193          	li	gp,164
    80001aac:	000d8337          	lui	t1,0xd8
    80001ab0:	d6d3031b          	addiw	t1,t1,-659 # d7d6d <_start-0x7ff28293>
    80001ab4:	00c31313          	slli	t1,t1,0xc
    80001ab8:	5d430313          	addi	t1,t1,1492
    80001abc:	000363b7          	lui	t2,0x36
    80001ac0:	35d3839b          	addiw	t2,t2,861 # 3635d <_start-0x7ffc9ca3>
    80001ac4:	01139393          	slli	t2,t2,0x11
    80001ac8:	a7b38393          	addi	t2,t2,-1413
    80001acc:	00f39393          	slli	t2,t2,0xf
    80001ad0:	d6d38393          	addi	t2,t2,-659
    80001ad4:	00c39393          	slli	t2,t2,0xc
    80001ad8:	5d438393          	addi	t2,t2,1492
    80001adc:	00642f23          	sw	t1,30(s0)
    80001ae0:	01e43e03          	ld	t3,30(s0)
    80001ae4:	2fc39463          	bne	t2,t3,80001dcc <fail>
    80001ae8:	0a500193          	li	gp,165
    80001aec:	0006e337          	lui	t1,0x6e
    80001af0:	ed73031b          	addiw	t1,t1,-297 # 6ded7 <_start-0x7ff92129>
    80001af4:	00d31313          	slli	t1,t1,0xd
    80001af8:	9d830313          	addi	t1,t1,-1576
    80001afc:	00dce3b7          	lui	t2,0xdce
    80001b00:	8d73839b          	addiw	t2,t2,-1833 # dcd8d7 <_start-0x7f232729>
    80001b04:	00c39393          	slli	t2,t2,0xc
    80001b08:	3f538393          	addi	t2,t2,1013
    80001b0c:	00d39393          	slli	t2,t2,0xd
    80001b10:	ebf38393          	addi	t2,t2,-321
    80001b14:	00d39393          	slli	t2,t2,0xd
    80001b18:	bda38393          	addi	t2,t2,-1062
    80001b1c:	00642ea3          	sw	t1,29(s0)
    80001b20:	01f43e03          	ld	t3,31(s0)
    80001b24:	2bc39463          	bne	t2,t3,80001dcc <fail>
    80001b28:	0a600193          	li	gp,166
    80001b2c:	0dc00313          	li	t1,220
    80001b30:	ffff93b7          	lui	t2,0xffff9
    80001b34:	1dc3839b          	addiw	t2,t2,476 # ffffffffffff91dc <_end+0xffffffff7fff605c>
    80001b38:	02640fa3          	sb	t1,63(s0)
    80001b3c:	03f41e03          	lh	t3,63(s0)
    80001b40:	29c39663          	bne	t2,t3,80001dcc <fail>
    80001b44:	0a700193          	li	gp,167
    80001b48:	0dd00313          	li	t1,221
    80001b4c:	0000e3b7          	lui	t2,0xe
    80001b50:	ddc3839b          	addiw	t2,t2,-548 # dddc <_start-0x7fff2224>
    80001b54:	04640023          	sb	t1,64(s0)
    80001b58:	03f45e03          	lhu	t3,63(s0)
    80001b5c:	27c39863          	bne	t2,t3,80001dcc <fail>
    80001b60:	0a800193          	li	gp,168
    80001b64:	0000e337          	lui	t1,0xe
    80001b68:	fde3031b          	addiw	t1,t1,-34 # dfde <_start-0x7fff2022>
    80001b6c:	92dde3b7          	lui	t2,0x92dde
    80001b70:	fde3839b          	addiw	t2,t2,-34 # ffffffff92dddfde <_end+0xffffffff12ddae5e>
    80001b74:	02641f23          	sh	t1,62(s0)
    80001b78:	03e42e03          	lw	t3,62(s0)
    80001b7c:	25c39863          	bne	t2,t3,80001dcc <fail>
    80001b80:	0a900193          	li	gp,169
    80001b84:	0000e337          	lui	t1,0xe
    80001b88:	1e03031b          	addiw	t1,t1,480 # e1e0 <_start-0x7fff1e20>
    80001b8c:	92e1e3b7          	lui	t2,0x92e1e
    80001b90:	0de3839b          	addiw	t2,t2,222 # ffffffff92e1e0de <_end+0xffffffff12e1af5e>
    80001b94:	02641fa3          	sh	t1,63(s0)
    80001b98:	03e42e03          	lw	t3,62(s0)
    80001b9c:	23c39863          	bne	t2,t3,80001dcc <fail>
    80001ba0:	0aa00193          	li	gp,170
    80001ba4:	0000e337          	lui	t1,0xe
    80001ba8:	3e23031b          	addiw	t1,t1,994 # e3e2 <_start-0x7fff1c1e>
    80001bac:	e3e2e3b7          	lui	t2,0xe3e2e
    80001bb0:	0de3839b          	addiw	t2,t2,222 # ffffffffe3e2e0de <_end+0xffffffff63e2af5e>
    80001bb4:	04641023          	sh	t1,64(s0)
    80001bb8:	03e42e03          	lw	t3,62(s0)
    80001bbc:	21c39863          	bne	t2,t3,80001dcc <fail>
    80001bc0:	0ab00193          	li	gp,171
    80001bc4:	0e400313          	li	t1,228
    80001bc8:	0004a3b7          	lui	t2,0x4a
    80001bcc:	f1f3839b          	addiw	t2,t2,-225 # 49f1f <_start-0x7ffb60e1>
    80001bd0:	00d39393          	slli	t2,t2,0xd
    80001bd4:	4e038393          	addi	t2,t2,1248
    80001bd8:	04640023          	sb	t1,64(s0)
    80001bdc:	03f46e03          	lwu	t3,63(s0)
    80001be0:	1fc39663          	bne	t2,t3,80001dcc <fail>
    80001be4:	0ac00193          	li	gp,172
    80001be8:	0000e337          	lui	t1,0xe
    80001bec:	6e53031b          	addiw	t1,t1,1765 # e6e5 <_start-0x7fff191b>
    80001bf0:	000733b7          	lui	t2,0x73
    80001bf4:	72f3839b          	addiw	t2,t2,1839 # 7372f <_start-0x7ff8c8d1>
    80001bf8:	00d39393          	slli	t2,t2,0xd
    80001bfc:	e8038393          	addi	t2,t2,-384
    80001c00:	02641fa3          	sh	t1,63(s0)
    80001c04:	03d46e03          	lwu	t3,61(s0)
    80001c08:	1dc39263          	bne	t2,t3,80001dcc <fail>
    80001c0c:	0ad00193          	li	gp,173
    80001c10:	0000f337          	lui	t1,0xf
    80001c14:	8e73031b          	addiw	t1,t1,-1817 # e8e7 <_start-0x7fff1719>
    80001c18:	000743b7          	lui	t2,0x74
    80001c1c:	73f3839b          	addiw	t2,t2,1855 # 7473f <_start-0x7ff8b8c1>
    80001c20:	00d39393          	slli	t2,t2,0xd
    80001c24:	5de38393          	addi	t2,t2,1502
    80001c28:	04641023          	sh	t1,64(s0)
    80001c2c:	03e46e03          	lwu	t3,62(s0)
    80001c30:	19c39e63          	bne	t2,t3,80001dcc <fail>
    80001c34:	0ae00193          	li	gp,174
    80001c38:	0e900313          	li	t1,233
    80001c3c:	ffd3d3b7          	lui	t2,0xffd3d
    80001c40:	bbd3839b          	addiw	t2,t2,-1091 # ffffffffffd3cbbd <_end+0xffffffff7fd39a3d>
    80001c44:	00c39393          	slli	t2,t2,0xc
    80001c48:	00f38393          	addi	t2,t2,15
    80001c4c:	00f39393          	slli	t2,t2,0xf
    80001c50:	70738393          	addi	t2,t2,1799
    80001c54:	00c39393          	slli	t2,t2,0xc
    80001c58:	86038393          	addi	t2,t2,-1952
    80001c5c:	04640023          	sb	t1,64(s0)
    80001c60:	03943e03          	ld	t3,57(s0)
    80001c64:	17c39463          	bne	t2,t3,80001dcc <fail>
    80001c68:	0af00193          	li	gp,175
    80001c6c:	0000f337          	lui	t1,0xf
    80001c70:	bea3031b          	addiw	t1,t1,-1046 # ebea <_start-0x7fff1416>
    80001c74:	d1d7d3b7          	lui	t2,0xd1d7d
    80001c78:	5bd3839b          	addiw	t2,t2,1469 # ffffffffd1d7d5bd <_end+0xffffffff51d7a43d>
    80001c7c:	01339393          	slli	t2,t2,0x13
    80001c80:	78738393          	addi	t2,t2,1927
    80001c84:	00c39393          	slli	t2,t2,0xc
    80001c88:	06838393          	addi	t2,t2,104
    80001c8c:	02641fa3          	sh	t1,63(s0)
    80001c90:	03a43e03          	ld	t3,58(s0)
    80001c94:	13c39c63          	bne	t2,t3,80001dcc <fail>
    80001c98:	0b000193          	li	gp,176
    80001c9c:	0000f337          	lui	t1,0xf
    80001ca0:	dec3031b          	addiw	t1,t1,-532 # edec <_start-0x7fff1214>
    80001ca4:	ffc9f3b7          	lui	t2,0xffc9f
    80001ca8:	4773839b          	addiw	t2,t2,1143 # ffffffffffc9f477 <_end+0xffffffff7fc9c2f7>
    80001cac:	00c39393          	slli	t2,t2,0xc
    80001cb0:	f6738393          	addi	t2,t2,-153
    80001cb4:	00e39393          	slli	t2,t2,0xe
    80001cb8:	d0138393          	addi	t2,t2,-767
    80001cbc:	00f39393          	slli	t2,t2,0xf
    80001cc0:	87038393          	addi	t2,t2,-1936
    80001cc4:	02641fa3          	sh	t1,63(s0)
    80001cc8:	03b43e03          	ld	t3,59(s0)
    80001ccc:	11c39063          	bne	t2,t3,80001dcc <fail>
    80001cd0:	0b100193          	li	gp,177
    80001cd4:	000f2337          	lui	t1,0xf2
    80001cd8:	f0f3031b          	addiw	t1,t1,-241 # f1f0f <_start-0x7ff0e0f1>
    80001cdc:	00c31313          	slli	t1,t1,0xc
    80001ce0:	fee30313          	addi	t1,t1,-18
    80001ce4:	ffff23b7          	lui	t2,0xffff2
    80001ce8:	f0f3839b          	addiw	t2,t2,-241 # ffffffffffff1f0f <_end+0xffffffff7ffeed8f>
    80001cec:	01039393          	slli	t2,t2,0x10
    80001cf0:	eef38393          	addi	t2,t2,-273
    80001cf4:	00d39393          	slli	t2,t2,0xd
    80001cf8:	9bd38393          	addi	t2,t2,-1603
    80001cfc:	00f39393          	slli	t2,t2,0xf
    80001d00:	07838393          	addi	t2,t2,120
    80001d04:	04642023          	sw	t1,64(s0)
    80001d08:	03c43e03          	ld	t3,60(s0)
    80001d0c:	0dc39063          	bne	t2,t3,80001dcc <fail>
    80001d10:	0b200193          	li	gp,178
    80001d14:	000f6337          	lui	t1,0xf6
    80001d18:	f4f3031b          	addiw	t1,t1,-177 # f5f4f <_start-0x7ff0a0b1>
    80001d1c:	00c31313          	slli	t1,t1,0xc
    80001d20:	3f230313          	addi	t1,t1,1010
    80001d24:	ffcb03b7          	lui	t2,0xffcb0
    80001d28:	8fb3839b          	addiw	t2,t2,-1797 # ffffffffffcaf8fb <_end+0xffffffff7fcac77b>
    80001d2c:	00f39393          	slli	t2,t2,0xf
    80001d30:	d3d38393          	addi	t2,t2,-707
    80001d34:	00d39393          	slli	t2,t2,0xd
    80001d38:	f9738393          	addi	t2,t2,-105
    80001d3c:	00d39393          	slli	t2,t2,0xd
    80001d40:	e8038393          	addi	t2,t2,-384
    80001d44:	02642fa3          	sw	t1,63(s0)
    80001d48:	03d43e03          	ld	t3,61(s0)
    80001d4c:	09c39063          	bne	t2,t3,80001dcc <fail>
    80001d50:	0b300193          	li	gp,179
    80001d54:	000fa337          	lui	t1,0xfa
    80001d58:	f8f3031b          	addiw	t1,t1,-113 # f9f8f <_start-0x7ff06071>
    80001d5c:	00c31313          	slli	t1,t1,0xc
    80001d60:	7f630313          	addi	t1,t1,2038
    80001d64:	ffcb53b7          	lui	t2,0xffcb5
    80001d68:	af93839b          	addiw	t2,t2,-1287 # ffffffffffcb4af9 <_end+0xffffffff7fcb1979>
    80001d6c:	01039393          	slli	t2,t2,0x10
    80001d70:	afd38393          	addi	t2,t2,-1283
    80001d74:	00d39393          	slli	t2,t2,0xd
    80001d78:	f8f38393          	addi	t2,t2,-113
    80001d7c:	00c39393          	slli	t2,t2,0xc
    80001d80:	7f638393          	addi	t2,t2,2038
    80001d84:	02642f23          	sw	t1,62(s0)
    80001d88:	03e43e03          	ld	t3,62(s0)
    80001d8c:	05c39063          	bne	t2,t3,80001dcc <fail>
    80001d90:	0b400193          	li	gp,180
    80001d94:	00010337          	lui	t1,0x10
    80001d98:	dfd3031b          	addiw	t1,t1,-515 # fdfd <_start-0x7fff0203>
    80001d9c:	01031313          	slli	t1,t1,0x10
    80001da0:	bfa30313          	addi	t1,t1,-1030
    80001da4:	cbcb53b7          	lui	t2,0xcbcb5
    80001da8:	af93839b          	addiw	t2,t2,-1287 # ffffffffcbcb4af9 <_end+0xffffffff4bcb1979>
    80001dac:	01039393          	slli	t2,t2,0x10
    80001db0:	afd38393          	addi	t2,t2,-1283
    80001db4:	01139393          	slli	t2,t2,0x11
    80001db8:	dfc38393          	addi	t2,t2,-516
    80001dbc:	02642ea3          	sw	t1,61(s0)
    80001dc0:	03f43e03          	ld	t3,63(s0)
    80001dc4:	01c39463          	bne	t2,t3,80001dcc <fail>
    80001dc8:	02301063          	bne	zero,gp,80001de8 <pass>

0000000080001dcc <fail>:
    80001dcc:	0ff0000f          	fence
    80001dd0:	00018063          	beqz	gp,80001dd0 <fail+0x4>
    80001dd4:	00119193          	slli	gp,gp,0x1
    80001dd8:	0011e193          	ori	gp,gp,1
    80001ddc:	05d00893          	li	a7,93
    80001de0:	00018513          	mv	a0,gp
    80001de4:	0000006b          	.4byte	0x6b

0000000080001de8 <pass>:
    80001de8:	0ff0000f          	fence
    80001dec:	00100193          	li	gp,1
    80001df0:	05d00893          	li	a7,93
    80001df4:	00000513          	li	a0,0
    80001df8:	0000006b          	.4byte	0x6b
    80001dfc:	c0001073          	unimp
    80001e00:	0000                	.2byte	0x0
    80001e02:	0000                	.2byte	0x0
    80001e04:	0000                	.2byte	0x0
    80001e06:	0000                	.2byte	0x0
    80001e08:	0000                	.2byte	0x0
    80001e0a:	0000                	.2byte	0x0
    80001e0c:	0000                	.2byte	0x0
    80001e0e:	0000                	.2byte	0x0
    80001e10:	0000                	.2byte	0x0
    80001e12:	0000                	.2byte	0x0
    80001e14:	0000                	.2byte	0x0
    80001e16:	0000                	.2byte	0x0
    80001e18:	0000                	.2byte	0x0
    80001e1a:	0000                	.2byte	0x0
    80001e1c:	0000                	.2byte	0x0
    80001e1e:	0000                	.2byte	0x0
    80001e20:	0000                	.2byte	0x0
    80001e22:	0000                	.2byte	0x0
    80001e24:	0000                	.2byte	0x0
    80001e26:	0000                	.2byte	0x0
    80001e28:	0000                	.2byte	0x0
    80001e2a:	0000                	.2byte	0x0
    80001e2c:	0000                	.2byte	0x0
    80001e2e:	0000                	.2byte	0x0
    80001e30:	0000                	.2byte	0x0
    80001e32:	0000                	.2byte	0x0
    80001e34:	0000                	.2byte	0x0
    80001e36:	0000                	.2byte	0x0
    80001e38:	0000                	.2byte	0x0
    80001e3a:	0000                	.2byte	0x0
