
rv64ui-p-lwu:     file format elf64-littleriscv


Disassembly of section .text.init:

0000000080000000 <_start>:
    80000000:	0480006f          	j	80000048 <reset_vector>

0000000080000004 <trap_vector>:
    80000004:	34202f73          	csrr	t5,mcause
    80000008:	00800f93          	li	t6,8
    8000000c:	03ff0863          	beq	t5,t6,8000003c <write_tohost>
    80000010:	00900f93          	li	t6,9
    80000014:	03ff0463          	beq	t5,t6,8000003c <write_tohost>
    80000018:	00b00f93          	li	t6,11
    8000001c:	03ff0063          	beq	t5,t6,8000003c <write_tohost>
    80000020:	00000f13          	li	t5,0
    80000024:	000f0463          	beqz	t5,8000002c <trap_vector+0x28>
    80000028:	000f0067          	jr	t5
    8000002c:	34202f73          	csrr	t5,mcause
    80000030:	000f5463          	bgez	t5,80000038 <handle_exception>
    80000034:	0040006f          	j	80000038 <handle_exception>

0000000080000038 <handle_exception>:
    80000038:	5391e193          	ori	gp,gp,1337

000000008000003c <write_tohost>:
    8000003c:	00001f17          	auipc	t5,0x1
    80000040:	fc3f2223          	sw	gp,-60(t5) # 80001000 <tohost>
    80000044:	ff9ff06f          	j	8000003c <write_tohost>

0000000080000048 <reset_vector>:
    80000048:	00000093          	li	ra,0
    8000004c:	00000113          	li	sp,0
    80000050:	00000193          	li	gp,0
    80000054:	00000213          	li	tp,0
    80000058:	00000293          	li	t0,0
    8000005c:	00000313          	li	t1,0
    80000060:	00000393          	li	t2,0
    80000064:	00000413          	li	s0,0
    80000068:	00000493          	li	s1,0
    8000006c:	00000513          	li	a0,0
    80000070:	00000593          	li	a1,0
    80000074:	00000613          	li	a2,0
    80000078:	00000693          	li	a3,0
    8000007c:	00000713          	li	a4,0
    80000080:	00000793          	li	a5,0
    80000084:	00000813          	li	a6,0
    80000088:	00000893          	li	a7,0
    8000008c:	00000913          	li	s2,0
    80000090:	00000993          	li	s3,0
    80000094:	00000a13          	li	s4,0
    80000098:	00000a93          	li	s5,0
    8000009c:	00000b13          	li	s6,0
    800000a0:	00000b93          	li	s7,0
    800000a4:	00000c13          	li	s8,0
    800000a8:	00000c93          	li	s9,0
    800000ac:	00000d13          	li	s10,0
    800000b0:	00000d93          	li	s11,0
    800000b4:	00000e13          	li	t3,0
    800000b8:	00000e93          	li	t4,0
    800000bc:	00000f13          	li	t5,0
    800000c0:	00000f93          	li	t6,0
    800000c4:	f1402573          	csrr	a0,mhartid
    800000c8:	00051063          	bnez	a0,800000c8 <reset_vector+0x80>
    800000cc:	00000297          	auipc	t0,0x0
    800000d0:	01028293          	addi	t0,t0,16 # 800000dc <reset_vector+0x94>
    800000d4:	30529073          	csrw	mtvec,t0
    800000d8:	18005073          	csrwi	satp,0
    800000dc:	30405073          	csrwi	mie,0
    800000e0:	00000297          	auipc	t0,0x0
    800000e4:	01428293          	addi	t0,t0,20 # 800000f4 <reset_vector+0xac>
    800000e8:	30529073          	csrw	mtvec,t0
    800000ec:	30205073          	csrwi	medeleg,0
    800000f0:	30305073          	csrwi	mideleg,0
    800000f4:	00000193          	li	gp,0
    800000f8:	00000297          	auipc	t0,0x0
    800000fc:	f0c28293          	addi	t0,t0,-244 # 80000004 <trap_vector>
    80000100:	30529073          	csrw	mtvec,t0
    80000104:	00100513          	li	a0,1
    80000108:	01f51513          	slli	a0,a0,0x1f
    8000010c:	00055c63          	bgez	a0,80000124 <reset_vector+0xdc>
    80000110:	0ff0000f          	fence
    80000114:	00100193          	li	gp,1
    80000118:	05d00893          	li	a7,93
    8000011c:	00000513          	li	a0,0
    80000120:	0000006b          	.4byte	0x6b
    80000124:	00000293          	li	t0,0
    80000128:	00028a63          	beqz	t0,8000013c <reset_vector+0xf4>
    8000012c:	10529073          	csrw	stvec,t0
    80000130:	0000b2b7          	lui	t0,0xb
    80000134:	1092829b          	addiw	t0,t0,265 # b109 <_start-0x7fff4ef7>
    80000138:	30229073          	csrw	medeleg,t0
    8000013c:	30005073          	csrwi	mstatus,0
    80000140:	00000297          	auipc	t0,0x0
    80000144:	01428293          	addi	t0,t0,20 # 80000154 <test_2>
    80000148:	34129073          	csrw	mepc,t0
    8000014c:	f1402573          	csrr	a0,mhartid
    80000150:	30200073          	mret

0000000080000154 <test_2>:
    80000154:	00200193          	li	gp,2
    80000158:	00ff07b7          	lui	a5,0xff0
    8000015c:	0ff7879b          	addiw	a5,a5,255 # ff00ff <_start-0x7f00ff01>
    80000160:	00002097          	auipc	ra,0x2
    80000164:	ea008093          	addi	ra,ra,-352 # 80002000 <begin_signature>
    80000168:	0000e703          	lwu	a4,0(ra)
    8000016c:	00ff03b7          	lui	t2,0xff0
    80000170:	0ff3839b          	addiw	t2,t2,255 # ff00ff <_start-0x7f00ff01>
    80000174:	30771a63          	bne	a4,t2,80000488 <fail>

0000000080000178 <test_3>:
    80000178:	00300193          	li	gp,3
    8000017c:	000107b7          	lui	a5,0x10
    80000180:	f017879b          	addiw	a5,a5,-255 # ff01 <_start-0x7fff00ff>
    80000184:	01079793          	slli	a5,a5,0x10
    80000188:	f0078793          	addi	a5,a5,-256
    8000018c:	00002097          	auipc	ra,0x2
    80000190:	e7408093          	addi	ra,ra,-396 # 80002000 <begin_signature>
    80000194:	0040e703          	lwu	a4,4(ra)
    80000198:	000103b7          	lui	t2,0x10
    8000019c:	f013839b          	addiw	t2,t2,-255 # ff01 <_start-0x7fff00ff>
    800001a0:	01039393          	slli	t2,t2,0x10
    800001a4:	f0038393          	addi	t2,t2,-256
    800001a8:	2e771063          	bne	a4,t2,80000488 <fail>

00000000800001ac <test_4>:
    800001ac:	00400193          	li	gp,4
    800001b0:	0ff017b7          	lui	a5,0xff01
    800001b4:	ff07879b          	addiw	a5,a5,-16 # ff00ff0 <_start-0x700ff010>
    800001b8:	00002097          	auipc	ra,0x2
    800001bc:	e4808093          	addi	ra,ra,-440 # 80002000 <begin_signature>
    800001c0:	0080e703          	lwu	a4,8(ra)
    800001c4:	0ff013b7          	lui	t2,0xff01
    800001c8:	ff03839b          	addiw	t2,t2,-16 # ff00ff0 <_start-0x700ff010>
    800001cc:	2a771e63          	bne	a4,t2,80000488 <fail>

00000000800001d0 <test_5>:
    800001d0:	00500193          	li	gp,5
    800001d4:	000f07b7          	lui	a5,0xf0
    800001d8:	0ff7879b          	addiw	a5,a5,255 # f00ff <_start-0x7ff0ff01>
    800001dc:	00c79793          	slli	a5,a5,0xc
    800001e0:	00f78793          	addi	a5,a5,15
    800001e4:	00002097          	auipc	ra,0x2
    800001e8:	e1c08093          	addi	ra,ra,-484 # 80002000 <begin_signature>
    800001ec:	00c0e703          	lwu	a4,12(ra)
    800001f0:	000f03b7          	lui	t2,0xf0
    800001f4:	0ff3839b          	addiw	t2,t2,255 # f00ff <_start-0x7ff0ff01>
    800001f8:	00c39393          	slli	t2,t2,0xc
    800001fc:	00f38393          	addi	t2,t2,15
    80000200:	28771463          	bne	a4,t2,80000488 <fail>

0000000080000204 <test_6>:
    80000204:	00600193          	li	gp,6
    80000208:	00ff07b7          	lui	a5,0xff0
    8000020c:	0ff7879b          	addiw	a5,a5,255 # ff00ff <_start-0x7f00ff01>
    80000210:	00002097          	auipc	ra,0x2
    80000214:	dfc08093          	addi	ra,ra,-516 # 8000200c <tdat4>
    80000218:	ff40e703          	lwu	a4,-12(ra)
    8000021c:	00ff03b7          	lui	t2,0xff0
    80000220:	0ff3839b          	addiw	t2,t2,255 # ff00ff <_start-0x7f00ff01>
    80000224:	26771263          	bne	a4,t2,80000488 <fail>

0000000080000228 <test_7>:
    80000228:	00700193          	li	gp,7
    8000022c:	000107b7          	lui	a5,0x10
    80000230:	f017879b          	addiw	a5,a5,-255 # ff01 <_start-0x7fff00ff>
    80000234:	01079793          	slli	a5,a5,0x10
    80000238:	f0078793          	addi	a5,a5,-256
    8000023c:	00002097          	auipc	ra,0x2
    80000240:	dd008093          	addi	ra,ra,-560 # 8000200c <tdat4>
    80000244:	ff80e703          	lwu	a4,-8(ra)
    80000248:	000103b7          	lui	t2,0x10
    8000024c:	f013839b          	addiw	t2,t2,-255 # ff01 <_start-0x7fff00ff>
    80000250:	01039393          	slli	t2,t2,0x10
    80000254:	f0038393          	addi	t2,t2,-256
    80000258:	22771863          	bne	a4,t2,80000488 <fail>

000000008000025c <test_8>:
    8000025c:	00800193          	li	gp,8
    80000260:	0ff017b7          	lui	a5,0xff01
    80000264:	ff07879b          	addiw	a5,a5,-16 # ff00ff0 <_start-0x700ff010>
    80000268:	00002097          	auipc	ra,0x2
    8000026c:	da408093          	addi	ra,ra,-604 # 8000200c <tdat4>
    80000270:	ffc0e703          	lwu	a4,-4(ra)
    80000274:	0ff013b7          	lui	t2,0xff01
    80000278:	ff03839b          	addiw	t2,t2,-16 # ff00ff0 <_start-0x700ff010>
    8000027c:	20771663          	bne	a4,t2,80000488 <fail>

0000000080000280 <test_9>:
    80000280:	00900193          	li	gp,9
    80000284:	000f07b7          	lui	a5,0xf0
    80000288:	0ff7879b          	addiw	a5,a5,255 # f00ff <_start-0x7ff0ff01>
    8000028c:	00c79793          	slli	a5,a5,0xc
    80000290:	00f78793          	addi	a5,a5,15
    80000294:	00002097          	auipc	ra,0x2
    80000298:	d7808093          	addi	ra,ra,-648 # 8000200c <tdat4>
    8000029c:	0000e703          	lwu	a4,0(ra)
    800002a0:	000f03b7          	lui	t2,0xf0
    800002a4:	0ff3839b          	addiw	t2,t2,255 # f00ff <_start-0x7ff0ff01>
    800002a8:	00c39393          	slli	t2,t2,0xc
    800002ac:	00f38393          	addi	t2,t2,15
    800002b0:	1c771c63          	bne	a4,t2,80000488 <fail>

00000000800002b4 <test_10>:
    800002b4:	00a00193          	li	gp,10
    800002b8:	00002097          	auipc	ra,0x2
    800002bc:	d4808093          	addi	ra,ra,-696 # 80002000 <begin_signature>
    800002c0:	fe008093          	addi	ra,ra,-32
    800002c4:	0200e283          	lwu	t0,32(ra)
    800002c8:	00ff03b7          	lui	t2,0xff0
    800002cc:	0ff3839b          	addiw	t2,t2,255 # ff00ff <_start-0x7f00ff01>
    800002d0:	1a729c63          	bne	t0,t2,80000488 <fail>

00000000800002d4 <test_11>:
    800002d4:	00b00193          	li	gp,11
    800002d8:	00002097          	auipc	ra,0x2
    800002dc:	d2808093          	addi	ra,ra,-728 # 80002000 <begin_signature>
    800002e0:	ffd08093          	addi	ra,ra,-3
    800002e4:	0070e283          	lwu	t0,7(ra)
    800002e8:	000103b7          	lui	t2,0x10
    800002ec:	f013839b          	addiw	t2,t2,-255 # ff01 <_start-0x7fff00ff>
    800002f0:	01039393          	slli	t2,t2,0x10
    800002f4:	f0038393          	addi	t2,t2,-256
    800002f8:	18729863          	bne	t0,t2,80000488 <fail>

00000000800002fc <test_12>:
    800002fc:	00c00193          	li	gp,12
    80000300:	00000213          	li	tp,0
    80000304:	00002097          	auipc	ra,0x2
    80000308:	d0008093          	addi	ra,ra,-768 # 80002004 <tdat2>
    8000030c:	0040e703          	lwu	a4,4(ra)
    80000310:	00070313          	mv	t1,a4
    80000314:	0ff013b7          	lui	t2,0xff01
    80000318:	ff03839b          	addiw	t2,t2,-16 # ff00ff0 <_start-0x700ff010>
    8000031c:	16731663          	bne	t1,t2,80000488 <fail>
    80000320:	00120213          	addi	tp,tp,1 # 1 <_start-0x7fffffff>
    80000324:	00200293          	li	t0,2
    80000328:	fc521ee3          	bne	tp,t0,80000304 <test_12+0x8>

000000008000032c <test_13>:
    8000032c:	00d00193          	li	gp,13
    80000330:	00000213          	li	tp,0
    80000334:	00002097          	auipc	ra,0x2
    80000338:	cd408093          	addi	ra,ra,-812 # 80002008 <tdat3>
    8000033c:	0040e703          	lwu	a4,4(ra)
    80000340:	00000013          	nop
    80000344:	00070313          	mv	t1,a4
    80000348:	000f03b7          	lui	t2,0xf0
    8000034c:	0ff3839b          	addiw	t2,t2,255 # f00ff <_start-0x7ff0ff01>
    80000350:	00c39393          	slli	t2,t2,0xc
    80000354:	00f38393          	addi	t2,t2,15
    80000358:	12731863          	bne	t1,t2,80000488 <fail>
    8000035c:	00120213          	addi	tp,tp,1 # 1 <_start-0x7fffffff>
    80000360:	00200293          	li	t0,2
    80000364:	fc5218e3          	bne	tp,t0,80000334 <test_13+0x8>

0000000080000368 <test_14>:
    80000368:	00e00193          	li	gp,14
    8000036c:	00000213          	li	tp,0
    80000370:	00002097          	auipc	ra,0x2
    80000374:	c9008093          	addi	ra,ra,-880 # 80002000 <begin_signature>
    80000378:	0040e703          	lwu	a4,4(ra)
    8000037c:	00000013          	nop
    80000380:	00000013          	nop
    80000384:	00070313          	mv	t1,a4
    80000388:	000103b7          	lui	t2,0x10
    8000038c:	f013839b          	addiw	t2,t2,-255 # ff01 <_start-0x7fff00ff>
    80000390:	01039393          	slli	t2,t2,0x10
    80000394:	f0038393          	addi	t2,t2,-256
    80000398:	0e731863          	bne	t1,t2,80000488 <fail>
    8000039c:	00120213          	addi	tp,tp,1 # 1 <_start-0x7fffffff>
    800003a0:	00200293          	li	t0,2
    800003a4:	fc5216e3          	bne	tp,t0,80000370 <test_14+0x8>

00000000800003a8 <test_15>:
    800003a8:	00f00193          	li	gp,15
    800003ac:	00000213          	li	tp,0
    800003b0:	00002097          	auipc	ra,0x2
    800003b4:	c5408093          	addi	ra,ra,-940 # 80002004 <tdat2>
    800003b8:	0040e703          	lwu	a4,4(ra)
    800003bc:	0ff013b7          	lui	t2,0xff01
    800003c0:	ff03839b          	addiw	t2,t2,-16 # ff00ff0 <_start-0x700ff010>
    800003c4:	0c771263          	bne	a4,t2,80000488 <fail>
    800003c8:	00120213          	addi	tp,tp,1 # 1 <_start-0x7fffffff>
    800003cc:	00200293          	li	t0,2
    800003d0:	fe5210e3          	bne	tp,t0,800003b0 <test_15+0x8>

00000000800003d4 <test_16>:
    800003d4:	01000193          	li	gp,16
    800003d8:	00000213          	li	tp,0
    800003dc:	00002097          	auipc	ra,0x2
    800003e0:	c2c08093          	addi	ra,ra,-980 # 80002008 <tdat3>
    800003e4:	00000013          	nop
    800003e8:	0040e703          	lwu	a4,4(ra)
    800003ec:	000f03b7          	lui	t2,0xf0
    800003f0:	0ff3839b          	addiw	t2,t2,255 # f00ff <_start-0x7ff0ff01>
    800003f4:	00c39393          	slli	t2,t2,0xc
    800003f8:	00f38393          	addi	t2,t2,15
    800003fc:	08771663          	bne	a4,t2,80000488 <fail>
    80000400:	00120213          	addi	tp,tp,1 # 1 <_start-0x7fffffff>
    80000404:	00200293          	li	t0,2
    80000408:	fc521ae3          	bne	tp,t0,800003dc <test_16+0x8>

000000008000040c <test_17>:
    8000040c:	01100193          	li	gp,17
    80000410:	00000213          	li	tp,0
    80000414:	00002097          	auipc	ra,0x2
    80000418:	bec08093          	addi	ra,ra,-1044 # 80002000 <begin_signature>
    8000041c:	00000013          	nop
    80000420:	00000013          	nop
    80000424:	0040e703          	lwu	a4,4(ra)
    80000428:	000103b7          	lui	t2,0x10
    8000042c:	f013839b          	addiw	t2,t2,-255 # ff01 <_start-0x7fff00ff>
    80000430:	01039393          	slli	t2,t2,0x10
    80000434:	f0038393          	addi	t2,t2,-256
    80000438:	04771863          	bne	a4,t2,80000488 <fail>
    8000043c:	00120213          	addi	tp,tp,1 # 1 <_start-0x7fffffff>
    80000440:	00200293          	li	t0,2
    80000444:	fc5218e3          	bne	tp,t0,80000414 <test_17+0x8>

0000000080000448 <test_18>:
    80000448:	01200193          	li	gp,18
    8000044c:	00002297          	auipc	t0,0x2
    80000450:	bb428293          	addi	t0,t0,-1100 # 80002000 <begin_signature>
    80000454:	0002e103          	lwu	sp,0(t0)
    80000458:	00200113          	li	sp,2
    8000045c:	00200393          	li	t2,2
    80000460:	02711463          	bne	sp,t2,80000488 <fail>

0000000080000464 <test_19>:
    80000464:	01300193          	li	gp,19
    80000468:	00002297          	auipc	t0,0x2
    8000046c:	b9828293          	addi	t0,t0,-1128 # 80002000 <begin_signature>
    80000470:	0002e103          	lwu	sp,0(t0)
    80000474:	00000013          	nop
    80000478:	00200113          	li	sp,2
    8000047c:	00200393          	li	t2,2
    80000480:	00711463          	bne	sp,t2,80000488 <fail>
    80000484:	02301063          	bne	zero,gp,800004a4 <pass>

0000000080000488 <fail>:
    80000488:	0ff0000f          	fence
    8000048c:	00018063          	beqz	gp,8000048c <fail+0x4>
    80000490:	00119193          	slli	gp,gp,0x1
    80000494:	0011e193          	ori	gp,gp,1
    80000498:	05d00893          	li	a7,93
    8000049c:	00018513          	mv	a0,gp
    800004a0:	0000006b          	.4byte	0x6b

00000000800004a4 <pass>:
    800004a4:	0ff0000f          	fence
    800004a8:	00100193          	li	gp,1
    800004ac:	05d00893          	li	a7,93
    800004b0:	00000513          	li	a0,0
    800004b4:	0000006b          	.4byte	0x6b
    800004b8:	c0001073          	unimp
