
rv64ui-p-sll:     file format elf64-littleriscv


Disassembly of section .text.init:

0000000080000000 <_start>:
    80000000:	0480006f          	j	80000048 <reset_vector>

0000000080000004 <trap_vector>:
    80000004:	34202f73          	csrr	t5,mcause
    80000008:	00800f93          	li	t6,8
    8000000c:	03ff0863          	beq	t5,t6,8000003c <write_tohost>
    80000010:	00900f93          	li	t6,9
    80000014:	03ff0463          	beq	t5,t6,8000003c <write_tohost>
    80000018:	00b00f93          	li	t6,11
    8000001c:	03ff0063          	beq	t5,t6,8000003c <write_tohost>
    80000020:	00000f13          	li	t5,0
    80000024:	000f0463          	beqz	t5,8000002c <trap_vector+0x28>
    80000028:	000f0067          	jr	t5
    8000002c:	34202f73          	csrr	t5,mcause
    80000030:	000f5463          	bgez	t5,80000038 <handle_exception>
    80000034:	0040006f          	j	80000038 <handle_exception>

0000000080000038 <handle_exception>:
    80000038:	5391e193          	ori	gp,gp,1337

000000008000003c <write_tohost>:
    8000003c:	00001f17          	auipc	t5,0x1
    80000040:	fc3f2223          	sw	gp,-60(t5) # 80001000 <tohost>
    80000044:	ff9ff06f          	j	8000003c <write_tohost>

0000000080000048 <reset_vector>:
    80000048:	00000093          	li	ra,0
    8000004c:	00000113          	li	sp,0
    80000050:	00000193          	li	gp,0
    80000054:	00000213          	li	tp,0
    80000058:	00000293          	li	t0,0
    8000005c:	00000313          	li	t1,0
    80000060:	00000393          	li	t2,0
    80000064:	00000413          	li	s0,0
    80000068:	00000493          	li	s1,0
    8000006c:	00000513          	li	a0,0
    80000070:	00000593          	li	a1,0
    80000074:	00000613          	li	a2,0
    80000078:	00000693          	li	a3,0
    8000007c:	00000713          	li	a4,0
    80000080:	00000793          	li	a5,0
    80000084:	00000813          	li	a6,0
    80000088:	00000893          	li	a7,0
    8000008c:	00000913          	li	s2,0
    80000090:	00000993          	li	s3,0
    80000094:	00000a13          	li	s4,0
    80000098:	00000a93          	li	s5,0
    8000009c:	00000b13          	li	s6,0
    800000a0:	00000b93          	li	s7,0
    800000a4:	00000c13          	li	s8,0
    800000a8:	00000c93          	li	s9,0
    800000ac:	00000d13          	li	s10,0
    800000b0:	00000d93          	li	s11,0
    800000b4:	00000e13          	li	t3,0
    800000b8:	00000e93          	li	t4,0
    800000bc:	00000f13          	li	t5,0
    800000c0:	00000f93          	li	t6,0
    800000c4:	f1402573          	csrr	a0,mhartid
    800000c8:	00051063          	bnez	a0,800000c8 <reset_vector+0x80>
    800000cc:	00000297          	auipc	t0,0x0
    800000d0:	01028293          	addi	t0,t0,16 # 800000dc <reset_vector+0x94>
    800000d4:	30529073          	csrw	mtvec,t0
    800000d8:	18005073          	csrwi	satp,0
    800000dc:	30405073          	csrwi	mie,0
    800000e0:	00000297          	auipc	t0,0x0
    800000e4:	01428293          	addi	t0,t0,20 # 800000f4 <reset_vector+0xac>
    800000e8:	30529073          	csrw	mtvec,t0
    800000ec:	30205073          	csrwi	medeleg,0
    800000f0:	30305073          	csrwi	mideleg,0
    800000f4:	00000193          	li	gp,0
    800000f8:	00000297          	auipc	t0,0x0
    800000fc:	f0c28293          	addi	t0,t0,-244 # 80000004 <trap_vector>
    80000100:	30529073          	csrw	mtvec,t0
    80000104:	00100513          	li	a0,1
    80000108:	01f51513          	slli	a0,a0,0x1f
    8000010c:	00055c63          	bgez	a0,80000124 <reset_vector+0xdc>
    80000110:	0ff0000f          	fence
    80000114:	00100193          	li	gp,1
    80000118:	05d00893          	li	a7,93
    8000011c:	00000513          	li	a0,0
    80000120:	0000006b          	.4byte	0x6b
    80000124:	00000293          	li	t0,0
    80000128:	00028a63          	beqz	t0,8000013c <reset_vector+0xf4>
    8000012c:	10529073          	csrw	stvec,t0
    80000130:	0000b2b7          	lui	t0,0xb
    80000134:	1092829b          	addiw	t0,t0,265 # b109 <_start-0x7fff4ef7>
    80000138:	30229073          	csrw	medeleg,t0
    8000013c:	30005073          	csrwi	mstatus,0
    80000140:	00000297          	auipc	t0,0x0
    80000144:	01428293          	addi	t0,t0,20 # 80000154 <test_2>
    80000148:	34129073          	csrw	mepc,t0
    8000014c:	f1402573          	csrr	a0,mhartid
    80000150:	30200073          	mret

0000000080000154 <test_2>:
    80000154:	00200193          	li	gp,2
    80000158:	00100093          	li	ra,1
    8000015c:	00000113          	li	sp,0
    80000160:	00209733          	sll	a4,ra,sp
    80000164:	00100393          	li	t2,1
    80000168:	5e771c63          	bne	a4,t2,80000760 <fail>

000000008000016c <test_3>:
    8000016c:	00300193          	li	gp,3
    80000170:	00100093          	li	ra,1
    80000174:	00100113          	li	sp,1
    80000178:	00209733          	sll	a4,ra,sp
    8000017c:	00200393          	li	t2,2
    80000180:	5e771063          	bne	a4,t2,80000760 <fail>

0000000080000184 <test_4>:
    80000184:	00400193          	li	gp,4
    80000188:	00100093          	li	ra,1
    8000018c:	00700113          	li	sp,7
    80000190:	00209733          	sll	a4,ra,sp
    80000194:	08000393          	li	t2,128
    80000198:	5c771463          	bne	a4,t2,80000760 <fail>

000000008000019c <test_5>:
    8000019c:	00500193          	li	gp,5
    800001a0:	00100093          	li	ra,1
    800001a4:	00e00113          	li	sp,14
    800001a8:	00209733          	sll	a4,ra,sp
    800001ac:	000043b7          	lui	t2,0x4
    800001b0:	5a771863          	bne	a4,t2,80000760 <fail>

00000000800001b4 <test_6>:
    800001b4:	00600193          	li	gp,6
    800001b8:	00100093          	li	ra,1
    800001bc:	01f00113          	li	sp,31
    800001c0:	00209733          	sll	a4,ra,sp
    800001c4:	0010039b          	addiw	t2,zero,1
    800001c8:	01f39393          	slli	t2,t2,0x1f
    800001cc:	58771a63          	bne	a4,t2,80000760 <fail>

00000000800001d0 <test_7>:
    800001d0:	00700193          	li	gp,7
    800001d4:	fff00093          	li	ra,-1
    800001d8:	00000113          	li	sp,0
    800001dc:	00209733          	sll	a4,ra,sp
    800001e0:	fff00393          	li	t2,-1
    800001e4:	56771e63          	bne	a4,t2,80000760 <fail>

00000000800001e8 <test_8>:
    800001e8:	00800193          	li	gp,8
    800001ec:	fff00093          	li	ra,-1
    800001f0:	00100113          	li	sp,1
    800001f4:	00209733          	sll	a4,ra,sp
    800001f8:	ffe00393          	li	t2,-2
    800001fc:	56771263          	bne	a4,t2,80000760 <fail>

0000000080000200 <test_9>:
    80000200:	00900193          	li	gp,9
    80000204:	fff00093          	li	ra,-1
    80000208:	00700113          	li	sp,7
    8000020c:	00209733          	sll	a4,ra,sp
    80000210:	f8000393          	li	t2,-128
    80000214:	54771663          	bne	a4,t2,80000760 <fail>

0000000080000218 <test_10>:
    80000218:	00a00193          	li	gp,10
    8000021c:	fff00093          	li	ra,-1
    80000220:	00e00113          	li	sp,14
    80000224:	00209733          	sll	a4,ra,sp
    80000228:	ffffc3b7          	lui	t2,0xffffc
    8000022c:	52771a63          	bne	a4,t2,80000760 <fail>

0000000080000230 <test_11>:
    80000230:	00b00193          	li	gp,11
    80000234:	fff00093          	li	ra,-1
    80000238:	01f00113          	li	sp,31
    8000023c:	00209733          	sll	a4,ra,sp
    80000240:	800003b7          	lui	t2,0x80000
    80000244:	50771e63          	bne	a4,t2,80000760 <fail>

0000000080000248 <test_12>:
    80000248:	00c00193          	li	gp,12
    8000024c:	212120b7          	lui	ra,0x21212
    80000250:	1210809b          	addiw	ra,ra,289 # 21212121 <_start-0x5edededf>
    80000254:	00000113          	li	sp,0
    80000258:	00209733          	sll	a4,ra,sp
    8000025c:	212123b7          	lui	t2,0x21212
    80000260:	1213839b          	addiw	t2,t2,289 # 21212121 <_start-0x5edededf>
    80000264:	4e771e63          	bne	a4,t2,80000760 <fail>

0000000080000268 <test_13>:
    80000268:	00d00193          	li	gp,13
    8000026c:	212120b7          	lui	ra,0x21212
    80000270:	1210809b          	addiw	ra,ra,289 # 21212121 <_start-0x5edededf>
    80000274:	00100113          	li	sp,1
    80000278:	00209733          	sll	a4,ra,sp
    8000027c:	424243b7          	lui	t2,0x42424
    80000280:	2423839b          	addiw	t2,t2,578 # 42424242 <_start-0x3dbdbdbe>
    80000284:	4c771e63          	bne	a4,t2,80000760 <fail>

0000000080000288 <test_14>:
    80000288:	00e00193          	li	gp,14
    8000028c:	212120b7          	lui	ra,0x21212
    80000290:	1210809b          	addiw	ra,ra,289 # 21212121 <_start-0x5edededf>
    80000294:	00700113          	li	sp,7
    80000298:	00209733          	sll	a4,ra,sp
    8000029c:	010913b7          	lui	t2,0x1091
    800002a0:	9093839b          	addiw	t2,t2,-1783 # 1090909 <_start-0x7ef6f6f7>
    800002a4:	00c39393          	slli	t2,t2,0xc
    800002a8:	08038393          	addi	t2,t2,128
    800002ac:	4a771a63          	bne	a4,t2,80000760 <fail>

00000000800002b0 <test_15>:
    800002b0:	00f00193          	li	gp,15
    800002b4:	212120b7          	lui	ra,0x21212
    800002b8:	1210809b          	addiw	ra,ra,289 # 21212121 <_start-0x5edededf>
    800002bc:	00e00113          	li	sp,14
    800002c0:	00209733          	sll	a4,ra,sp
    800002c4:	212123b7          	lui	t2,0x21212
    800002c8:	1213839b          	addiw	t2,t2,289 # 21212121 <_start-0x5edededf>
    800002cc:	00e39393          	slli	t2,t2,0xe
    800002d0:	48771863          	bne	a4,t2,80000760 <fail>

00000000800002d4 <test_16>:
    800002d4:	01000193          	li	gp,16
    800002d8:	212120b7          	lui	ra,0x21212
    800002dc:	1210809b          	addiw	ra,ra,289 # 21212121 <_start-0x5edededf>
    800002e0:	01f00113          	li	sp,31
    800002e4:	00209733          	sll	a4,ra,sp
    800002e8:	212123b7          	lui	t2,0x21212
    800002ec:	1213839b          	addiw	t2,t2,289 # 21212121 <_start-0x5edededf>
    800002f0:	01f39393          	slli	t2,t2,0x1f
    800002f4:	46771663          	bne	a4,t2,80000760 <fail>

00000000800002f8 <test_17>:
    800002f8:	01100193          	li	gp,17
    800002fc:	212120b7          	lui	ra,0x21212
    80000300:	1210809b          	addiw	ra,ra,289 # 21212121 <_start-0x5edededf>
    80000304:	fc000113          	li	sp,-64
    80000308:	00209733          	sll	a4,ra,sp
    8000030c:	212123b7          	lui	t2,0x21212
    80000310:	1213839b          	addiw	t2,t2,289 # 21212121 <_start-0x5edededf>
    80000314:	44771663          	bne	a4,t2,80000760 <fail>

0000000080000318 <test_18>:
    80000318:	01200193          	li	gp,18
    8000031c:	212120b7          	lui	ra,0x21212
    80000320:	1210809b          	addiw	ra,ra,289 # 21212121 <_start-0x5edededf>
    80000324:	fc100113          	li	sp,-63
    80000328:	00209733          	sll	a4,ra,sp
    8000032c:	424243b7          	lui	t2,0x42424
    80000330:	2423839b          	addiw	t2,t2,578 # 42424242 <_start-0x3dbdbdbe>
    80000334:	42771663          	bne	a4,t2,80000760 <fail>

0000000080000338 <test_19>:
    80000338:	01300193          	li	gp,19
    8000033c:	212120b7          	lui	ra,0x21212
    80000340:	1210809b          	addiw	ra,ra,289 # 21212121 <_start-0x5edededf>
    80000344:	fc700113          	li	sp,-57
    80000348:	00209733          	sll	a4,ra,sp
    8000034c:	010913b7          	lui	t2,0x1091
    80000350:	9093839b          	addiw	t2,t2,-1783 # 1090909 <_start-0x7ef6f6f7>
    80000354:	00c39393          	slli	t2,t2,0xc
    80000358:	08038393          	addi	t2,t2,128
    8000035c:	40771263          	bne	a4,t2,80000760 <fail>

0000000080000360 <test_20>:
    80000360:	01400193          	li	gp,20
    80000364:	212120b7          	lui	ra,0x21212
    80000368:	1210809b          	addiw	ra,ra,289 # 21212121 <_start-0x5edededf>
    8000036c:	fce00113          	li	sp,-50
    80000370:	00209733          	sll	a4,ra,sp
    80000374:	212123b7          	lui	t2,0x21212
    80000378:	1213839b          	addiw	t2,t2,289 # 21212121 <_start-0x5edededf>
    8000037c:	00e39393          	slli	t2,t2,0xe
    80000380:	3e771063          	bne	a4,t2,80000760 <fail>

0000000080000384 <test_21>:
    80000384:	01500193          	li	gp,21
    80000388:	212120b7          	lui	ra,0x21212
    8000038c:	1210809b          	addiw	ra,ra,289 # 21212121 <_start-0x5edededf>
    80000390:	fff00113          	li	sp,-1
    80000394:	00209733          	sll	a4,ra,sp
    80000398:	fff0039b          	addiw	t2,zero,-1
    8000039c:	03f39393          	slli	t2,t2,0x3f
    800003a0:	3c771063          	bne	a4,t2,80000760 <fail>

00000000800003a4 <test_50>:
    800003a4:	03200193          	li	gp,50
    800003a8:	00100093          	li	ra,1
    800003ac:	03f00113          	li	sp,63
    800003b0:	00209733          	sll	a4,ra,sp
    800003b4:	fff0039b          	addiw	t2,zero,-1
    800003b8:	03f39393          	slli	t2,t2,0x3f
    800003bc:	3a771263          	bne	a4,t2,80000760 <fail>

00000000800003c0 <test_51>:
    800003c0:	03300193          	li	gp,51
    800003c4:	fff00093          	li	ra,-1
    800003c8:	02700113          	li	sp,39
    800003cc:	00209733          	sll	a4,ra,sp
    800003d0:	fff0039b          	addiw	t2,zero,-1
    800003d4:	02739393          	slli	t2,t2,0x27
    800003d8:	38771463          	bne	a4,t2,80000760 <fail>

00000000800003dc <test_52>:
    800003dc:	03400193          	li	gp,52
    800003e0:	212120b7          	lui	ra,0x21212
    800003e4:	1210809b          	addiw	ra,ra,289 # 21212121 <_start-0x5edededf>
    800003e8:	02b00113          	li	sp,43
    800003ec:	00209733          	sll	a4,ra,sp
    800003f0:	000123b7          	lui	t2,0x12
    800003f4:	1213839b          	addiw	t2,t2,289 # 12121 <_start-0x7ffededf>
    800003f8:	02b39393          	slli	t2,t2,0x2b
    800003fc:	36771263          	bne	a4,t2,80000760 <fail>

0000000080000400 <test_22>:
    80000400:	01600193          	li	gp,22
    80000404:	00100093          	li	ra,1
    80000408:	00700113          	li	sp,7
    8000040c:	002090b3          	sll	ra,ra,sp
    80000410:	08000393          	li	t2,128
    80000414:	34709663          	bne	ra,t2,80000760 <fail>

0000000080000418 <test_23>:
    80000418:	01700193          	li	gp,23
    8000041c:	00100093          	li	ra,1
    80000420:	00e00113          	li	sp,14
    80000424:	00209133          	sll	sp,ra,sp
    80000428:	000043b7          	lui	t2,0x4
    8000042c:	32711a63          	bne	sp,t2,80000760 <fail>

0000000080000430 <test_24>:
    80000430:	01800193          	li	gp,24
    80000434:	00300093          	li	ra,3
    80000438:	001090b3          	sll	ra,ra,ra
    8000043c:	01800393          	li	t2,24
    80000440:	32709063          	bne	ra,t2,80000760 <fail>

0000000080000444 <test_25>:
    80000444:	01900193          	li	gp,25
    80000448:	00000213          	li	tp,0
    8000044c:	00100093          	li	ra,1
    80000450:	00700113          	li	sp,7
    80000454:	00209733          	sll	a4,ra,sp
    80000458:	00070313          	mv	t1,a4
    8000045c:	00120213          	addi	tp,tp,1 # 1 <_start-0x7fffffff>
    80000460:	00200293          	li	t0,2
    80000464:	fe5214e3          	bne	tp,t0,8000044c <test_25+0x8>
    80000468:	08000393          	li	t2,128
    8000046c:	2e731a63          	bne	t1,t2,80000760 <fail>

0000000080000470 <test_26>:
    80000470:	01a00193          	li	gp,26
    80000474:	00000213          	li	tp,0
    80000478:	00100093          	li	ra,1
    8000047c:	00e00113          	li	sp,14
    80000480:	00209733          	sll	a4,ra,sp
    80000484:	00000013          	nop
    80000488:	00070313          	mv	t1,a4
    8000048c:	00120213          	addi	tp,tp,1 # 1 <_start-0x7fffffff>
    80000490:	00200293          	li	t0,2
    80000494:	fe5212e3          	bne	tp,t0,80000478 <test_26+0x8>
    80000498:	000043b7          	lui	t2,0x4
    8000049c:	2c731263          	bne	t1,t2,80000760 <fail>

00000000800004a0 <test_27>:
    800004a0:	01b00193          	li	gp,27
    800004a4:	00000213          	li	tp,0
    800004a8:	00100093          	li	ra,1
    800004ac:	01f00113          	li	sp,31
    800004b0:	00209733          	sll	a4,ra,sp
    800004b4:	00000013          	nop
    800004b8:	00000013          	nop
    800004bc:	00070313          	mv	t1,a4
    800004c0:	00120213          	addi	tp,tp,1 # 1 <_start-0x7fffffff>
    800004c4:	00200293          	li	t0,2
    800004c8:	fe5210e3          	bne	tp,t0,800004a8 <test_27+0x8>
    800004cc:	0010039b          	addiw	t2,zero,1
    800004d0:	01f39393          	slli	t2,t2,0x1f
    800004d4:	28731663          	bne	t1,t2,80000760 <fail>

00000000800004d8 <test_28>:
    800004d8:	01c00193          	li	gp,28
    800004dc:	00000213          	li	tp,0
    800004e0:	00100093          	li	ra,1
    800004e4:	00700113          	li	sp,7
    800004e8:	00209733          	sll	a4,ra,sp
    800004ec:	00120213          	addi	tp,tp,1 # 1 <_start-0x7fffffff>
    800004f0:	00200293          	li	t0,2
    800004f4:	fe5216e3          	bne	tp,t0,800004e0 <test_28+0x8>
    800004f8:	08000393          	li	t2,128
    800004fc:	26771263          	bne	a4,t2,80000760 <fail>

0000000080000500 <test_29>:
    80000500:	01d00193          	li	gp,29
    80000504:	00000213          	li	tp,0
    80000508:	00100093          	li	ra,1
    8000050c:	00e00113          	li	sp,14
    80000510:	00000013          	nop
    80000514:	00209733          	sll	a4,ra,sp
    80000518:	00120213          	addi	tp,tp,1 # 1 <_start-0x7fffffff>
    8000051c:	00200293          	li	t0,2
    80000520:	fe5214e3          	bne	tp,t0,80000508 <test_29+0x8>
    80000524:	000043b7          	lui	t2,0x4
    80000528:	22771c63          	bne	a4,t2,80000760 <fail>

000000008000052c <test_30>:
    8000052c:	01e00193          	li	gp,30
    80000530:	00000213          	li	tp,0
    80000534:	00100093          	li	ra,1
    80000538:	01f00113          	li	sp,31
    8000053c:	00000013          	nop
    80000540:	00000013          	nop
    80000544:	00209733          	sll	a4,ra,sp
    80000548:	00120213          	addi	tp,tp,1 # 1 <_start-0x7fffffff>
    8000054c:	00200293          	li	t0,2
    80000550:	fe5212e3          	bne	tp,t0,80000534 <test_30+0x8>
    80000554:	0010039b          	addiw	t2,zero,1
    80000558:	01f39393          	slli	t2,t2,0x1f
    8000055c:	20771263          	bne	a4,t2,80000760 <fail>

0000000080000560 <test_31>:
    80000560:	01f00193          	li	gp,31
    80000564:	00000213          	li	tp,0
    80000568:	00100093          	li	ra,1
    8000056c:	00000013          	nop
    80000570:	00700113          	li	sp,7
    80000574:	00209733          	sll	a4,ra,sp
    80000578:	00120213          	addi	tp,tp,1 # 1 <_start-0x7fffffff>
    8000057c:	00200293          	li	t0,2
    80000580:	fe5214e3          	bne	tp,t0,80000568 <test_31+0x8>
    80000584:	08000393          	li	t2,128
    80000588:	1c771c63          	bne	a4,t2,80000760 <fail>

000000008000058c <test_32>:
    8000058c:	02000193          	li	gp,32
    80000590:	00000213          	li	tp,0
    80000594:	00100093          	li	ra,1
    80000598:	00000013          	nop
    8000059c:	00e00113          	li	sp,14
    800005a0:	00000013          	nop
    800005a4:	00209733          	sll	a4,ra,sp
    800005a8:	00120213          	addi	tp,tp,1 # 1 <_start-0x7fffffff>
    800005ac:	00200293          	li	t0,2
    800005b0:	fe5212e3          	bne	tp,t0,80000594 <test_32+0x8>
    800005b4:	000043b7          	lui	t2,0x4
    800005b8:	1a771463          	bne	a4,t2,80000760 <fail>

00000000800005bc <test_33>:
    800005bc:	02100193          	li	gp,33
    800005c0:	00000213          	li	tp,0
    800005c4:	00100093          	li	ra,1
    800005c8:	00000013          	nop
    800005cc:	00000013          	nop
    800005d0:	01f00113          	li	sp,31
    800005d4:	00209733          	sll	a4,ra,sp
    800005d8:	00120213          	addi	tp,tp,1 # 1 <_start-0x7fffffff>
    800005dc:	00200293          	li	t0,2
    800005e0:	fe5212e3          	bne	tp,t0,800005c4 <test_33+0x8>
    800005e4:	0010039b          	addiw	t2,zero,1
    800005e8:	01f39393          	slli	t2,t2,0x1f
    800005ec:	16771a63          	bne	a4,t2,80000760 <fail>

00000000800005f0 <test_34>:
    800005f0:	02200193          	li	gp,34
    800005f4:	00000213          	li	tp,0
    800005f8:	00700113          	li	sp,7
    800005fc:	00100093          	li	ra,1
    80000600:	00209733          	sll	a4,ra,sp
    80000604:	00120213          	addi	tp,tp,1 # 1 <_start-0x7fffffff>
    80000608:	00200293          	li	t0,2
    8000060c:	fe5216e3          	bne	tp,t0,800005f8 <test_34+0x8>
    80000610:	08000393          	li	t2,128
    80000614:	14771663          	bne	a4,t2,80000760 <fail>

0000000080000618 <test_35>:
    80000618:	02300193          	li	gp,35
    8000061c:	00000213          	li	tp,0
    80000620:	00e00113          	li	sp,14
    80000624:	00100093          	li	ra,1
    80000628:	00000013          	nop
    8000062c:	00209733          	sll	a4,ra,sp
    80000630:	00120213          	addi	tp,tp,1 # 1 <_start-0x7fffffff>
    80000634:	00200293          	li	t0,2
    80000638:	fe5214e3          	bne	tp,t0,80000620 <test_35+0x8>
    8000063c:	000043b7          	lui	t2,0x4
    80000640:	12771063          	bne	a4,t2,80000760 <fail>

0000000080000644 <test_36>:
    80000644:	02400193          	li	gp,36
    80000648:	00000213          	li	tp,0
    8000064c:	01f00113          	li	sp,31
    80000650:	00100093          	li	ra,1
    80000654:	00000013          	nop
    80000658:	00000013          	nop
    8000065c:	00209733          	sll	a4,ra,sp
    80000660:	00120213          	addi	tp,tp,1 # 1 <_start-0x7fffffff>
    80000664:	00200293          	li	t0,2
    80000668:	fe5212e3          	bne	tp,t0,8000064c <test_36+0x8>
    8000066c:	0010039b          	addiw	t2,zero,1
    80000670:	01f39393          	slli	t2,t2,0x1f
    80000674:	0e771663          	bne	a4,t2,80000760 <fail>

0000000080000678 <test_37>:
    80000678:	02500193          	li	gp,37
    8000067c:	00000213          	li	tp,0
    80000680:	00700113          	li	sp,7
    80000684:	00000013          	nop
    80000688:	00100093          	li	ra,1
    8000068c:	00209733          	sll	a4,ra,sp
    80000690:	00120213          	addi	tp,tp,1 # 1 <_start-0x7fffffff>
    80000694:	00200293          	li	t0,2
    80000698:	fe5214e3          	bne	tp,t0,80000680 <test_37+0x8>
    8000069c:	08000393          	li	t2,128
    800006a0:	0c771063          	bne	a4,t2,80000760 <fail>

00000000800006a4 <test_38>:
    800006a4:	02600193          	li	gp,38
    800006a8:	00000213          	li	tp,0
    800006ac:	00e00113          	li	sp,14
    800006b0:	00000013          	nop
    800006b4:	00100093          	li	ra,1
    800006b8:	00000013          	nop
    800006bc:	00209733          	sll	a4,ra,sp
    800006c0:	00120213          	addi	tp,tp,1 # 1 <_start-0x7fffffff>
    800006c4:	00200293          	li	t0,2
    800006c8:	fe5212e3          	bne	tp,t0,800006ac <test_38+0x8>
    800006cc:	000043b7          	lui	t2,0x4
    800006d0:	08771863          	bne	a4,t2,80000760 <fail>

00000000800006d4 <test_39>:
    800006d4:	02700193          	li	gp,39
    800006d8:	00000213          	li	tp,0
    800006dc:	01f00113          	li	sp,31
    800006e0:	00000013          	nop
    800006e4:	00000013          	nop
    800006e8:	00100093          	li	ra,1
    800006ec:	00209733          	sll	a4,ra,sp
    800006f0:	00120213          	addi	tp,tp,1 # 1 <_start-0x7fffffff>
    800006f4:	00200293          	li	t0,2
    800006f8:	fe5212e3          	bne	tp,t0,800006dc <test_39+0x8>
    800006fc:	0010039b          	addiw	t2,zero,1
    80000700:	01f39393          	slli	t2,t2,0x1f
    80000704:	04771e63          	bne	a4,t2,80000760 <fail>

0000000080000708 <test_40>:
    80000708:	02800193          	li	gp,40
    8000070c:	00f00093          	li	ra,15
    80000710:	00101133          	sll	sp,zero,ra
    80000714:	00000393          	li	t2,0
    80000718:	04711463          	bne	sp,t2,80000760 <fail>

000000008000071c <test_41>:
    8000071c:	02900193          	li	gp,41
    80000720:	02000093          	li	ra,32
    80000724:	00009133          	sll	sp,ra,zero
    80000728:	02000393          	li	t2,32
    8000072c:	02711a63          	bne	sp,t2,80000760 <fail>

0000000080000730 <test_42>:
    80000730:	02a00193          	li	gp,42
    80000734:	000010b3          	sll	ra,zero,zero
    80000738:	00000393          	li	t2,0
    8000073c:	02709263          	bne	ra,t2,80000760 <fail>

0000000080000740 <test_43>:
    80000740:	02b00193          	li	gp,43
    80000744:	40000093          	li	ra,1024
    80000748:	00001137          	lui	sp,0x1
    8000074c:	8001011b          	addiw	sp,sp,-2048 # 800 <_start-0x7ffff800>
    80000750:	00209033          	sll	zero,ra,sp
    80000754:	00000393          	li	t2,0
    80000758:	00701463          	bne	zero,t2,80000760 <fail>
    8000075c:	02301063          	bne	zero,gp,8000077c <pass>

0000000080000760 <fail>:
    80000760:	0ff0000f          	fence
    80000764:	00018063          	beqz	gp,80000764 <fail+0x4>
    80000768:	00119193          	slli	gp,gp,0x1
    8000076c:	0011e193          	ori	gp,gp,1
    80000770:	05d00893          	li	a7,93
    80000774:	00018513          	mv	a0,gp
    80000778:	0000006b          	.4byte	0x6b

000000008000077c <pass>:
    8000077c:	0ff0000f          	fence
    80000780:	00100193          	li	gp,1
    80000784:	05d00893          	li	a7,93
    80000788:	00000513          	li	a0,0
    8000078c:	0000006b          	.4byte	0x6b
    80000790:	c0001073          	unimp
    80000794:	0000                	.2byte	0x0
    80000796:	0000                	.2byte	0x0
    80000798:	0000                	.2byte	0x0
    8000079a:	0000                	.2byte	0x0
    8000079c:	0000                	.2byte	0x0
    8000079e:	0000                	.2byte	0x0
    800007a0:	0000                	.2byte	0x0
    800007a2:	0000                	.2byte	0x0
    800007a4:	0000                	.2byte	0x0
    800007a6:	0000                	.2byte	0x0
    800007a8:	0000                	.2byte	0x0
    800007aa:	0000                	.2byte	0x0
    800007ac:	0000                	.2byte	0x0
    800007ae:	0000                	.2byte	0x0
    800007b0:	0000                	.2byte	0x0
    800007b2:	0000                	.2byte	0x0
    800007b4:	0000                	.2byte	0x0
    800007b6:	0000                	.2byte	0x0
    800007b8:	0000                	.2byte	0x0
    800007ba:	0000                	.2byte	0x0
