
rv64ui-p-slliw:     file format elf64-littleriscv


Disassembly of section .text.init:

0000000080000000 <_start>:
    80000000:	0480006f          	j	80000048 <reset_vector>

0000000080000004 <trap_vector>:
    80000004:	34202f73          	csrr	t5,mcause
    80000008:	00800f93          	li	t6,8
    8000000c:	03ff0863          	beq	t5,t6,8000003c <write_tohost>
    80000010:	00900f93          	li	t6,9
    80000014:	03ff0463          	beq	t5,t6,8000003c <write_tohost>
    80000018:	00b00f93          	li	t6,11
    8000001c:	03ff0063          	beq	t5,t6,8000003c <write_tohost>
    80000020:	00000f13          	li	t5,0
    80000024:	000f0463          	beqz	t5,8000002c <trap_vector+0x28>
    80000028:	000f0067          	jr	t5
    8000002c:	34202f73          	csrr	t5,mcause
    80000030:	000f5463          	bgez	t5,80000038 <handle_exception>
    80000034:	0040006f          	j	80000038 <handle_exception>

0000000080000038 <handle_exception>:
    80000038:	5391e193          	ori	gp,gp,1337

000000008000003c <write_tohost>:
    8000003c:	00001f17          	auipc	t5,0x1
    80000040:	fc3f2223          	sw	gp,-60(t5) # 80001000 <tohost>
    80000044:	ff9ff06f          	j	8000003c <write_tohost>

0000000080000048 <reset_vector>:
    80000048:	00000093          	li	ra,0
    8000004c:	00000113          	li	sp,0
    80000050:	00000193          	li	gp,0
    80000054:	00000213          	li	tp,0
    80000058:	00000293          	li	t0,0
    8000005c:	00000313          	li	t1,0
    80000060:	00000393          	li	t2,0
    80000064:	00000413          	li	s0,0
    80000068:	00000493          	li	s1,0
    8000006c:	00000513          	li	a0,0
    80000070:	00000593          	li	a1,0
    80000074:	00000613          	li	a2,0
    80000078:	00000693          	li	a3,0
    8000007c:	00000713          	li	a4,0
    80000080:	00000793          	li	a5,0
    80000084:	00000813          	li	a6,0
    80000088:	00000893          	li	a7,0
    8000008c:	00000913          	li	s2,0
    80000090:	00000993          	li	s3,0
    80000094:	00000a13          	li	s4,0
    80000098:	00000a93          	li	s5,0
    8000009c:	00000b13          	li	s6,0
    800000a0:	00000b93          	li	s7,0
    800000a4:	00000c13          	li	s8,0
    800000a8:	00000c93          	li	s9,0
    800000ac:	00000d13          	li	s10,0
    800000b0:	00000d93          	li	s11,0
    800000b4:	00000e13          	li	t3,0
    800000b8:	00000e93          	li	t4,0
    800000bc:	00000f13          	li	t5,0
    800000c0:	00000f93          	li	t6,0
    800000c4:	f1402573          	csrr	a0,mhartid
    800000c8:	00051063          	bnez	a0,800000c8 <reset_vector+0x80>
    800000cc:	00000297          	auipc	t0,0x0
    800000d0:	01028293          	addi	t0,t0,16 # 800000dc <reset_vector+0x94>
    800000d4:	30529073          	csrw	mtvec,t0
    800000d8:	18005073          	csrwi	satp,0
    800000dc:	30405073          	csrwi	mie,0
    800000e0:	00000297          	auipc	t0,0x0
    800000e4:	01428293          	addi	t0,t0,20 # 800000f4 <reset_vector+0xac>
    800000e8:	30529073          	csrw	mtvec,t0
    800000ec:	30205073          	csrwi	medeleg,0
    800000f0:	30305073          	csrwi	mideleg,0
    800000f4:	00000193          	li	gp,0
    800000f8:	00000297          	auipc	t0,0x0
    800000fc:	f0c28293          	addi	t0,t0,-244 # 80000004 <trap_vector>
    80000100:	30529073          	csrw	mtvec,t0
    80000104:	00100513          	li	a0,1
    80000108:	01f51513          	slli	a0,a0,0x1f
    8000010c:	00055c63          	bgez	a0,80000124 <reset_vector+0xdc>
    80000110:	0ff0000f          	fence
    80000114:	00100193          	li	gp,1
    80000118:	05d00893          	li	a7,93
    8000011c:	00000513          	li	a0,0
    80000120:	0000006b          	.4byte	0x6b
    80000124:	00000293          	li	t0,0
    80000128:	00028a63          	beqz	t0,8000013c <reset_vector+0xf4>
    8000012c:	10529073          	csrw	stvec,t0
    80000130:	0000b2b7          	lui	t0,0xb
    80000134:	1092829b          	addiw	t0,t0,265 # b109 <_start-0x7fff4ef7>
    80000138:	30229073          	csrw	medeleg,t0
    8000013c:	30005073          	csrwi	mstatus,0
    80000140:	00000297          	auipc	t0,0x0
    80000144:	01428293          	addi	t0,t0,20 # 80000154 <test_2>
    80000148:	34129073          	csrw	mepc,t0
    8000014c:	f1402573          	csrr	a0,mhartid
    80000150:	30200073          	mret

0000000080000154 <test_2>:
    80000154:	00200193          	li	gp,2
    80000158:	00100093          	li	ra,1
    8000015c:	0000971b          	slliw	a4,ra,0x0
    80000160:	00100393          	li	t2,1
    80000164:	30771263          	bne	a4,t2,80000468 <fail>

0000000080000168 <test_3>:
    80000168:	00300193          	li	gp,3
    8000016c:	00100093          	li	ra,1
    80000170:	0010971b          	slliw	a4,ra,0x1
    80000174:	00200393          	li	t2,2
    80000178:	2e771863          	bne	a4,t2,80000468 <fail>

000000008000017c <test_4>:
    8000017c:	00400193          	li	gp,4
    80000180:	00100093          	li	ra,1
    80000184:	0070971b          	slliw	a4,ra,0x7
    80000188:	08000393          	li	t2,128
    8000018c:	2c771e63          	bne	a4,t2,80000468 <fail>

0000000080000190 <test_5>:
    80000190:	00500193          	li	gp,5
    80000194:	00100093          	li	ra,1
    80000198:	00e0971b          	slliw	a4,ra,0xe
    8000019c:	000043b7          	lui	t2,0x4
    800001a0:	2c771463          	bne	a4,t2,80000468 <fail>

00000000800001a4 <test_6>:
    800001a4:	00600193          	li	gp,6
    800001a8:	00100093          	li	ra,1
    800001ac:	01f0971b          	slliw	a4,ra,0x1f
    800001b0:	800003b7          	lui	t2,0x80000
    800001b4:	2a771a63          	bne	a4,t2,80000468 <fail>

00000000800001b8 <test_7>:
    800001b8:	00700193          	li	gp,7
    800001bc:	fff00093          	li	ra,-1
    800001c0:	0000971b          	slliw	a4,ra,0x0
    800001c4:	fff00393          	li	t2,-1
    800001c8:	2a771063          	bne	a4,t2,80000468 <fail>

00000000800001cc <test_8>:
    800001cc:	00800193          	li	gp,8
    800001d0:	fff00093          	li	ra,-1
    800001d4:	0010971b          	slliw	a4,ra,0x1
    800001d8:	ffe00393          	li	t2,-2
    800001dc:	28771663          	bne	a4,t2,80000468 <fail>

00000000800001e0 <test_9>:
    800001e0:	00900193          	li	gp,9
    800001e4:	fff00093          	li	ra,-1
    800001e8:	0070971b          	slliw	a4,ra,0x7
    800001ec:	f8000393          	li	t2,-128
    800001f0:	26771c63          	bne	a4,t2,80000468 <fail>

00000000800001f4 <test_10>:
    800001f4:	00a00193          	li	gp,10
    800001f8:	fff00093          	li	ra,-1
    800001fc:	00e0971b          	slliw	a4,ra,0xe
    80000200:	ffffc3b7          	lui	t2,0xffffc
    80000204:	26771263          	bne	a4,t2,80000468 <fail>

0000000080000208 <test_11>:
    80000208:	00b00193          	li	gp,11
    8000020c:	fff00093          	li	ra,-1
    80000210:	01f0971b          	slliw	a4,ra,0x1f
    80000214:	800003b7          	lui	t2,0x80000
    80000218:	24771863          	bne	a4,t2,80000468 <fail>

000000008000021c <test_12>:
    8000021c:	00c00193          	li	gp,12
    80000220:	212120b7          	lui	ra,0x21212
    80000224:	1210809b          	addiw	ra,ra,289 # 21212121 <_start-0x5edededf>
    80000228:	0000971b          	slliw	a4,ra,0x0
    8000022c:	212123b7          	lui	t2,0x21212
    80000230:	1213839b          	addiw	t2,t2,289 # 21212121 <_start-0x5edededf>
    80000234:	22771a63          	bne	a4,t2,80000468 <fail>

0000000080000238 <test_13>:
    80000238:	00d00193          	li	gp,13
    8000023c:	212120b7          	lui	ra,0x21212
    80000240:	1210809b          	addiw	ra,ra,289 # 21212121 <_start-0x5edededf>
    80000244:	0010971b          	slliw	a4,ra,0x1
    80000248:	424243b7          	lui	t2,0x42424
    8000024c:	2423839b          	addiw	t2,t2,578 # 42424242 <_start-0x3dbdbdbe>
    80000250:	20771c63          	bne	a4,t2,80000468 <fail>

0000000080000254 <test_14>:
    80000254:	00e00193          	li	gp,14
    80000258:	212120b7          	lui	ra,0x21212
    8000025c:	1210809b          	addiw	ra,ra,289 # 21212121 <_start-0x5edededf>
    80000260:	0070971b          	slliw	a4,ra,0x7
    80000264:	909093b7          	lui	t2,0x90909
    80000268:	0803839b          	addiw	t2,t2,128 # ffffffff90909080 <_end+0xffffffff10907080>
    8000026c:	1e771e63          	bne	a4,t2,80000468 <fail>

0000000080000270 <test_15>:
    80000270:	00f00193          	li	gp,15
    80000274:	212120b7          	lui	ra,0x21212
    80000278:	1210809b          	addiw	ra,ra,289 # 21212121 <_start-0x5edededf>
    8000027c:	00e0971b          	slliw	a4,ra,0xe
    80000280:	484843b7          	lui	t2,0x48484
    80000284:	1e771263          	bne	a4,t2,80000468 <fail>

0000000080000288 <test_16>:
    80000288:	01000193          	li	gp,16
    8000028c:	212120b7          	lui	ra,0x21212
    80000290:	1210809b          	addiw	ra,ra,289 # 21212121 <_start-0x5edededf>
    80000294:	01f0971b          	slliw	a4,ra,0x1f
    80000298:	800003b7          	lui	t2,0x80000
    8000029c:	1c771663          	bne	a4,t2,80000468 <fail>

00000000800002a0 <test_44>:
    800002a0:	02c00193          	li	gp,44
    800002a4:	fff120b7          	lui	ra,0xfff12
    800002a8:	3450809b          	addiw	ra,ra,837 # fffffffffff12345 <_end+0xffffffff7ff10345>
    800002ac:	00c09093          	slli	ra,ra,0xc
    800002b0:	67808093          	addi	ra,ra,1656
    800002b4:	0000971b          	slliw	a4,ra,0x0
    800002b8:	123453b7          	lui	t2,0x12345
    800002bc:	6783839b          	addiw	t2,t2,1656 # 12345678 <_start-0x6dcba988>
    800002c0:	1a771463          	bne	a4,t2,80000468 <fail>

00000000800002c4 <test_45>:
    800002c4:	02d00193          	li	gp,45
    800002c8:	fff120b7          	lui	ra,0xfff12
    800002cc:	3450809b          	addiw	ra,ra,837 # fffffffffff12345 <_end+0xffffffff7ff10345>
    800002d0:	00c09093          	slli	ra,ra,0xc
    800002d4:	67808093          	addi	ra,ra,1656
    800002d8:	0040971b          	slliw	a4,ra,0x4
    800002dc:	234563b7          	lui	t2,0x23456
    800002e0:	7803839b          	addiw	t2,t2,1920 # 23456780 <_start-0x5cba9880>
    800002e4:	18771263          	bne	a4,t2,80000468 <fail>

00000000800002e8 <test_46>:
    800002e8:	02e00193          	li	gp,46
    800002ec:	000920b7          	lui	ra,0x92
    800002f0:	3450809b          	addiw	ra,ra,837 # 92345 <_start-0x7ff6dcbb>
    800002f4:	00c09093          	slli	ra,ra,0xc
    800002f8:	67808093          	addi	ra,ra,1656
    800002fc:	0000971b          	slliw	a4,ra,0x0
    80000300:	923453b7          	lui	t2,0x92345
    80000304:	6783839b          	addiw	t2,t2,1656 # ffffffff92345678 <_end+0xffffffff12343678>
    80000308:	16771063          	bne	a4,t2,80000468 <fail>

000000008000030c <test_47>:
    8000030c:	02f00193          	li	gp,47
    80000310:	000990b7          	lui	ra,0x99
    80000314:	3450809b          	addiw	ra,ra,837 # 99345 <_start-0x7ff66cbb>
    80000318:	00c09093          	slli	ra,ra,0xc
    8000031c:	67808093          	addi	ra,ra,1656
    80000320:	0040971b          	slliw	a4,ra,0x4
    80000324:	934563b7          	lui	t2,0x93456
    80000328:	7803839b          	addiw	t2,t2,1920 # ffffffff93456780 <_end+0xffffffff13454780>
    8000032c:	12771e63          	bne	a4,t2,80000468 <fail>

0000000080000330 <test_17>:
    80000330:	01100193          	li	gp,17
    80000334:	00100093          	li	ra,1
    80000338:	0070909b          	slliw	ra,ra,0x7
    8000033c:	08000393          	li	t2,128
    80000340:	12709463          	bne	ra,t2,80000468 <fail>

0000000080000344 <test_18>:
    80000344:	01200193          	li	gp,18
    80000348:	00000213          	li	tp,0
    8000034c:	00100093          	li	ra,1
    80000350:	0070971b          	slliw	a4,ra,0x7
    80000354:	00070313          	mv	t1,a4
    80000358:	00120213          	addi	tp,tp,1 # 1 <_start-0x7fffffff>
    8000035c:	00200293          	li	t0,2
    80000360:	fe5216e3          	bne	tp,t0,8000034c <test_18+0x8>
    80000364:	08000393          	li	t2,128
    80000368:	10731063          	bne	t1,t2,80000468 <fail>

000000008000036c <test_19>:
    8000036c:	01300193          	li	gp,19
    80000370:	00000213          	li	tp,0
    80000374:	00100093          	li	ra,1
    80000378:	00e0971b          	slliw	a4,ra,0xe
    8000037c:	00000013          	nop
    80000380:	00070313          	mv	t1,a4
    80000384:	00120213          	addi	tp,tp,1 # 1 <_start-0x7fffffff>
    80000388:	00200293          	li	t0,2
    8000038c:	fe5214e3          	bne	tp,t0,80000374 <test_19+0x8>
    80000390:	000043b7          	lui	t2,0x4
    80000394:	0c731a63          	bne	t1,t2,80000468 <fail>

0000000080000398 <test_20>:
    80000398:	01400193          	li	gp,20
    8000039c:	00000213          	li	tp,0
    800003a0:	00100093          	li	ra,1
    800003a4:	01f0971b          	slliw	a4,ra,0x1f
    800003a8:	00000013          	nop
    800003ac:	00000013          	nop
    800003b0:	00070313          	mv	t1,a4
    800003b4:	00120213          	addi	tp,tp,1 # 1 <_start-0x7fffffff>
    800003b8:	00200293          	li	t0,2
    800003bc:	fe5212e3          	bne	tp,t0,800003a0 <test_20+0x8>
    800003c0:	800003b7          	lui	t2,0x80000
    800003c4:	0a731263          	bne	t1,t2,80000468 <fail>

00000000800003c8 <test_21>:
    800003c8:	01500193          	li	gp,21
    800003cc:	00000213          	li	tp,0
    800003d0:	00100093          	li	ra,1
    800003d4:	0070971b          	slliw	a4,ra,0x7
    800003d8:	00120213          	addi	tp,tp,1 # 1 <_start-0x7fffffff>
    800003dc:	00200293          	li	t0,2
    800003e0:	fe5218e3          	bne	tp,t0,800003d0 <test_21+0x8>
    800003e4:	08000393          	li	t2,128
    800003e8:	08771063          	bne	a4,t2,80000468 <fail>

00000000800003ec <test_22>:
    800003ec:	01600193          	li	gp,22
    800003f0:	00000213          	li	tp,0
    800003f4:	00100093          	li	ra,1
    800003f8:	00000013          	nop
    800003fc:	00e0971b          	slliw	a4,ra,0xe
    80000400:	00120213          	addi	tp,tp,1 # 1 <_start-0x7fffffff>
    80000404:	00200293          	li	t0,2
    80000408:	fe5216e3          	bne	tp,t0,800003f4 <test_22+0x8>
    8000040c:	000043b7          	lui	t2,0x4
    80000410:	04771c63          	bne	a4,t2,80000468 <fail>

0000000080000414 <test_23>:
    80000414:	01700193          	li	gp,23
    80000418:	00000213          	li	tp,0
    8000041c:	00100093          	li	ra,1
    80000420:	00000013          	nop
    80000424:	00000013          	nop
    80000428:	01f0971b          	slliw	a4,ra,0x1f
    8000042c:	00120213          	addi	tp,tp,1 # 1 <_start-0x7fffffff>
    80000430:	00200293          	li	t0,2
    80000434:	fe5214e3          	bne	tp,t0,8000041c <test_23+0x8>
    80000438:	800003b7          	lui	t2,0x80000
    8000043c:	02771663          	bne	a4,t2,80000468 <fail>

0000000080000440 <test_24>:
    80000440:	01800193          	li	gp,24
    80000444:	01f0109b          	slliw	ra,zero,0x1f
    80000448:	00000393          	li	t2,0
    8000044c:	00709e63          	bne	ra,t2,80000468 <fail>

0000000080000450 <test_25>:
    80000450:	01900193          	li	gp,25
    80000454:	01f00093          	li	ra,31
    80000458:	01c0901b          	slliw	zero,ra,0x1c
    8000045c:	00000393          	li	t2,0
    80000460:	00701463          	bne	zero,t2,80000468 <fail>
    80000464:	02301063          	bne	zero,gp,80000484 <pass>

0000000080000468 <fail>:
    80000468:	0ff0000f          	fence
    8000046c:	00018063          	beqz	gp,8000046c <fail+0x4>
    80000470:	00119193          	slli	gp,gp,0x1
    80000474:	0011e193          	ori	gp,gp,1
    80000478:	05d00893          	li	a7,93
    8000047c:	00018513          	mv	a0,gp
    80000480:	0000006b          	.4byte	0x6b

0000000080000484 <pass>:
    80000484:	0ff0000f          	fence
    80000488:	00100193          	li	gp,1
    8000048c:	05d00893          	li	a7,93
    80000490:	00000513          	li	a0,0
    80000494:	0000006b          	.4byte	0x6b
    80000498:	c0001073          	unimp
    8000049c:	0000                	.2byte	0x0
    8000049e:	0000                	.2byte	0x0
    800004a0:	0000                	.2byte	0x0
    800004a2:	0000                	.2byte	0x0
    800004a4:	0000                	.2byte	0x0
    800004a6:	0000                	.2byte	0x0
    800004a8:	0000                	.2byte	0x0
    800004aa:	0000                	.2byte	0x0
    800004ac:	0000                	.2byte	0x0
    800004ae:	0000                	.2byte	0x0
    800004b0:	0000                	.2byte	0x0
    800004b2:	0000                	.2byte	0x0
    800004b4:	0000                	.2byte	0x0
    800004b6:	0000                	.2byte	0x0
    800004b8:	0000                	.2byte	0x0
    800004ba:	0000                	.2byte	0x0
