
rv64ui-p-lb:     file format elf64-littleriscv


Disassembly of section .text.init:

0000000080000000 <_start>:
    80000000:	0480006f          	j	80000048 <reset_vector>

0000000080000004 <trap_vector>:
    80000004:	34202f73          	csrr	t5,mcause
    80000008:	00800f93          	li	t6,8
    8000000c:	03ff0863          	beq	t5,t6,8000003c <write_tohost>
    80000010:	00900f93          	li	t6,9
    80000014:	03ff0463          	beq	t5,t6,8000003c <write_tohost>
    80000018:	00b00f93          	li	t6,11
    8000001c:	03ff0063          	beq	t5,t6,8000003c <write_tohost>
    80000020:	00000f13          	li	t5,0
    80000024:	000f0463          	beqz	t5,8000002c <trap_vector+0x28>
    80000028:	000f0067          	jr	t5
    8000002c:	34202f73          	csrr	t5,mcause
    80000030:	000f5463          	bgez	t5,80000038 <handle_exception>
    80000034:	0040006f          	j	80000038 <handle_exception>

0000000080000038 <handle_exception>:
    80000038:	5391e193          	ori	gp,gp,1337

000000008000003c <write_tohost>:
    8000003c:	00001f17          	auipc	t5,0x1
    80000040:	fc3f2223          	sw	gp,-60(t5) # 80001000 <tohost>
    80000044:	ff9ff06f          	j	8000003c <write_tohost>

0000000080000048 <reset_vector>:
    80000048:	00000093          	li	ra,0
    8000004c:	00000113          	li	sp,0
    80000050:	00000193          	li	gp,0
    80000054:	00000213          	li	tp,0
    80000058:	00000293          	li	t0,0
    8000005c:	00000313          	li	t1,0
    80000060:	00000393          	li	t2,0
    80000064:	00000413          	li	s0,0
    80000068:	00000493          	li	s1,0
    8000006c:	00000513          	li	a0,0
    80000070:	00000593          	li	a1,0
    80000074:	00000613          	li	a2,0
    80000078:	00000693          	li	a3,0
    8000007c:	00000713          	li	a4,0
    80000080:	00000793          	li	a5,0
    80000084:	00000813          	li	a6,0
    80000088:	00000893          	li	a7,0
    8000008c:	00000913          	li	s2,0
    80000090:	00000993          	li	s3,0
    80000094:	00000a13          	li	s4,0
    80000098:	00000a93          	li	s5,0
    8000009c:	00000b13          	li	s6,0
    800000a0:	00000b93          	li	s7,0
    800000a4:	00000c13          	li	s8,0
    800000a8:	00000c93          	li	s9,0
    800000ac:	00000d13          	li	s10,0
    800000b0:	00000d93          	li	s11,0
    800000b4:	00000e13          	li	t3,0
    800000b8:	00000e93          	li	t4,0
    800000bc:	00000f13          	li	t5,0
    800000c0:	00000f93          	li	t6,0
    800000c4:	f1402573          	csrr	a0,mhartid
    800000c8:	00051063          	bnez	a0,800000c8 <reset_vector+0x80>
    800000cc:	00000297          	auipc	t0,0x0
    800000d0:	01028293          	addi	t0,t0,16 # 800000dc <reset_vector+0x94>
    800000d4:	30529073          	csrw	mtvec,t0
    800000d8:	18005073          	csrwi	satp,0
    800000dc:	30405073          	csrwi	mie,0
    800000e0:	00000297          	auipc	t0,0x0
    800000e4:	01428293          	addi	t0,t0,20 # 800000f4 <reset_vector+0xac>
    800000e8:	30529073          	csrw	mtvec,t0
    800000ec:	30205073          	csrwi	medeleg,0
    800000f0:	30305073          	csrwi	mideleg,0
    800000f4:	00000193          	li	gp,0
    800000f8:	00000297          	auipc	t0,0x0
    800000fc:	f0c28293          	addi	t0,t0,-244 # 80000004 <trap_vector>
    80000100:	30529073          	csrw	mtvec,t0
    80000104:	00100513          	li	a0,1
    80000108:	01f51513          	slli	a0,a0,0x1f
    8000010c:	00055c63          	bgez	a0,80000124 <reset_vector+0xdc>
    80000110:	0ff0000f          	fence
    80000114:	00100193          	li	gp,1
    80000118:	05d00893          	li	a7,93
    8000011c:	00000513          	li	a0,0
    80000120:	0000006b          	.4byte	0x6b
    80000124:	00000293          	li	t0,0
    80000128:	00028a63          	beqz	t0,8000013c <reset_vector+0xf4>
    8000012c:	10529073          	csrw	stvec,t0
    80000130:	0000b2b7          	lui	t0,0xb
    80000134:	1092829b          	addiw	t0,t0,265 # b109 <_start-0x7fff4ef7>
    80000138:	30229073          	csrw	medeleg,t0
    8000013c:	30005073          	csrwi	mstatus,0
    80000140:	00000297          	auipc	t0,0x0
    80000144:	01428293          	addi	t0,t0,20 # 80000154 <test_2>
    80000148:	34129073          	csrw	mepc,t0
    8000014c:	f1402573          	csrr	a0,mhartid
    80000150:	30200073          	mret

0000000080000154 <test_2>:
    80000154:	00200193          	li	gp,2
    80000158:	fff00793          	li	a5,-1
    8000015c:	00002097          	auipc	ra,0x2
    80000160:	ea408093          	addi	ra,ra,-348 # 80002000 <begin_signature>
    80000164:	00008703          	lb	a4,0(ra)
    80000168:	fff00393          	li	t2,-1
    8000016c:	24771a63          	bne	a4,t2,800003c0 <fail>

0000000080000170 <test_3>:
    80000170:	00300193          	li	gp,3
    80000174:	00000793          	li	a5,0
    80000178:	00002097          	auipc	ra,0x2
    8000017c:	e8808093          	addi	ra,ra,-376 # 80002000 <begin_signature>
    80000180:	00108703          	lb	a4,1(ra)
    80000184:	00000393          	li	t2,0
    80000188:	22771c63          	bne	a4,t2,800003c0 <fail>

000000008000018c <test_4>:
    8000018c:	00400193          	li	gp,4
    80000190:	ff000793          	li	a5,-16
    80000194:	00002097          	auipc	ra,0x2
    80000198:	e6c08093          	addi	ra,ra,-404 # 80002000 <begin_signature>
    8000019c:	00208703          	lb	a4,2(ra)
    800001a0:	ff000393          	li	t2,-16
    800001a4:	20771e63          	bne	a4,t2,800003c0 <fail>

00000000800001a8 <test_5>:
    800001a8:	00500193          	li	gp,5
    800001ac:	00f00793          	li	a5,15
    800001b0:	00002097          	auipc	ra,0x2
    800001b4:	e5008093          	addi	ra,ra,-432 # 80002000 <begin_signature>
    800001b8:	00308703          	lb	a4,3(ra)
    800001bc:	00f00393          	li	t2,15
    800001c0:	20771063          	bne	a4,t2,800003c0 <fail>

00000000800001c4 <test_6>:
    800001c4:	00600193          	li	gp,6
    800001c8:	fff00793          	li	a5,-1
    800001cc:	00002097          	auipc	ra,0x2
    800001d0:	e3708093          	addi	ra,ra,-457 # 80002003 <tdat4>
    800001d4:	ffd08703          	lb	a4,-3(ra)
    800001d8:	fff00393          	li	t2,-1
    800001dc:	1e771263          	bne	a4,t2,800003c0 <fail>

00000000800001e0 <test_7>:
    800001e0:	00700193          	li	gp,7
    800001e4:	00000793          	li	a5,0
    800001e8:	00002097          	auipc	ra,0x2
    800001ec:	e1b08093          	addi	ra,ra,-485 # 80002003 <tdat4>
    800001f0:	ffe08703          	lb	a4,-2(ra)
    800001f4:	00000393          	li	t2,0
    800001f8:	1c771463          	bne	a4,t2,800003c0 <fail>

00000000800001fc <test_8>:
    800001fc:	00800193          	li	gp,8
    80000200:	ff000793          	li	a5,-16
    80000204:	00002097          	auipc	ra,0x2
    80000208:	dff08093          	addi	ra,ra,-513 # 80002003 <tdat4>
    8000020c:	fff08703          	lb	a4,-1(ra)
    80000210:	ff000393          	li	t2,-16
    80000214:	1a771663          	bne	a4,t2,800003c0 <fail>

0000000080000218 <test_9>:
    80000218:	00900193          	li	gp,9
    8000021c:	00f00793          	li	a5,15
    80000220:	00002097          	auipc	ra,0x2
    80000224:	de308093          	addi	ra,ra,-541 # 80002003 <tdat4>
    80000228:	00008703          	lb	a4,0(ra)
    8000022c:	00f00393          	li	t2,15
    80000230:	18771863          	bne	a4,t2,800003c0 <fail>

0000000080000234 <test_10>:
    80000234:	00a00193          	li	gp,10
    80000238:	00002097          	auipc	ra,0x2
    8000023c:	dc808093          	addi	ra,ra,-568 # 80002000 <begin_signature>
    80000240:	fe008093          	addi	ra,ra,-32
    80000244:	02008283          	lb	t0,32(ra)
    80000248:	fff00393          	li	t2,-1
    8000024c:	16729a63          	bne	t0,t2,800003c0 <fail>

0000000080000250 <test_11>:
    80000250:	00b00193          	li	gp,11
    80000254:	00002097          	auipc	ra,0x2
    80000258:	dac08093          	addi	ra,ra,-596 # 80002000 <begin_signature>
    8000025c:	ffa08093          	addi	ra,ra,-6
    80000260:	00708283          	lb	t0,7(ra)
    80000264:	00000393          	li	t2,0
    80000268:	14729c63          	bne	t0,t2,800003c0 <fail>

000000008000026c <test_12>:
    8000026c:	00c00193          	li	gp,12
    80000270:	00000213          	li	tp,0
    80000274:	00002097          	auipc	ra,0x2
    80000278:	d8d08093          	addi	ra,ra,-627 # 80002001 <tdat2>
    8000027c:	00108703          	lb	a4,1(ra)
    80000280:	00070313          	mv	t1,a4
    80000284:	ff000393          	li	t2,-16
    80000288:	12731c63          	bne	t1,t2,800003c0 <fail>
    8000028c:	00120213          	addi	tp,tp,1 # 1 <_start-0x7fffffff>
    80000290:	00200293          	li	t0,2
    80000294:	fe5210e3          	bne	tp,t0,80000274 <test_12+0x8>

0000000080000298 <test_13>:
    80000298:	00d00193          	li	gp,13
    8000029c:	00000213          	li	tp,0
    800002a0:	00002097          	auipc	ra,0x2
    800002a4:	d6208093          	addi	ra,ra,-670 # 80002002 <tdat3>
    800002a8:	00108703          	lb	a4,1(ra)
    800002ac:	00000013          	nop
    800002b0:	00070313          	mv	t1,a4
    800002b4:	00f00393          	li	t2,15
    800002b8:	10731463          	bne	t1,t2,800003c0 <fail>
    800002bc:	00120213          	addi	tp,tp,1 # 1 <_start-0x7fffffff>
    800002c0:	00200293          	li	t0,2
    800002c4:	fc521ee3          	bne	tp,t0,800002a0 <test_13+0x8>

00000000800002c8 <test_14>:
    800002c8:	00e00193          	li	gp,14
    800002cc:	00000213          	li	tp,0
    800002d0:	00002097          	auipc	ra,0x2
    800002d4:	d3008093          	addi	ra,ra,-720 # 80002000 <begin_signature>
    800002d8:	00108703          	lb	a4,1(ra)
    800002dc:	00000013          	nop
    800002e0:	00000013          	nop
    800002e4:	00070313          	mv	t1,a4
    800002e8:	00000393          	li	t2,0
    800002ec:	0c731a63          	bne	t1,t2,800003c0 <fail>
    800002f0:	00120213          	addi	tp,tp,1 # 1 <_start-0x7fffffff>
    800002f4:	00200293          	li	t0,2
    800002f8:	fc521ce3          	bne	tp,t0,800002d0 <test_14+0x8>

00000000800002fc <test_15>:
    800002fc:	00f00193          	li	gp,15
    80000300:	00000213          	li	tp,0
    80000304:	00002097          	auipc	ra,0x2
    80000308:	cfd08093          	addi	ra,ra,-771 # 80002001 <tdat2>
    8000030c:	00108703          	lb	a4,1(ra)
    80000310:	ff000393          	li	t2,-16
    80000314:	0a771663          	bne	a4,t2,800003c0 <fail>
    80000318:	00120213          	addi	tp,tp,1 # 1 <_start-0x7fffffff>
    8000031c:	00200293          	li	t0,2
    80000320:	fe5212e3          	bne	tp,t0,80000304 <test_15+0x8>

0000000080000324 <test_16>:
    80000324:	01000193          	li	gp,16
    80000328:	00000213          	li	tp,0
    8000032c:	00002097          	auipc	ra,0x2
    80000330:	cd608093          	addi	ra,ra,-810 # 80002002 <tdat3>
    80000334:	00000013          	nop
    80000338:	00108703          	lb	a4,1(ra)
    8000033c:	00f00393          	li	t2,15
    80000340:	08771063          	bne	a4,t2,800003c0 <fail>
    80000344:	00120213          	addi	tp,tp,1 # 1 <_start-0x7fffffff>
    80000348:	00200293          	li	t0,2
    8000034c:	fe5210e3          	bne	tp,t0,8000032c <test_16+0x8>

0000000080000350 <test_17>:
    80000350:	01100193          	li	gp,17
    80000354:	00000213          	li	tp,0
    80000358:	00002097          	auipc	ra,0x2
    8000035c:	ca808093          	addi	ra,ra,-856 # 80002000 <begin_signature>
    80000360:	00000013          	nop
    80000364:	00000013          	nop
    80000368:	00108703          	lb	a4,1(ra)
    8000036c:	00000393          	li	t2,0
    80000370:	04771863          	bne	a4,t2,800003c0 <fail>
    80000374:	00120213          	addi	tp,tp,1 # 1 <_start-0x7fffffff>
    80000378:	00200293          	li	t0,2
    8000037c:	fc521ee3          	bne	tp,t0,80000358 <test_17+0x8>

0000000080000380 <test_18>:
    80000380:	01200193          	li	gp,18
    80000384:	00002297          	auipc	t0,0x2
    80000388:	c7c28293          	addi	t0,t0,-900 # 80002000 <begin_signature>
    8000038c:	00028103          	lb	sp,0(t0)
    80000390:	00200113          	li	sp,2
    80000394:	00200393          	li	t2,2
    80000398:	02711463          	bne	sp,t2,800003c0 <fail>

000000008000039c <test_19>:
    8000039c:	01300193          	li	gp,19
    800003a0:	00002297          	auipc	t0,0x2
    800003a4:	c6028293          	addi	t0,t0,-928 # 80002000 <begin_signature>
    800003a8:	00028103          	lb	sp,0(t0)
    800003ac:	00000013          	nop
    800003b0:	00200113          	li	sp,2
    800003b4:	00200393          	li	t2,2
    800003b8:	00711463          	bne	sp,t2,800003c0 <fail>
    800003bc:	02301063          	bne	zero,gp,800003dc <pass>

00000000800003c0 <fail>:
    800003c0:	0ff0000f          	fence
    800003c4:	00018063          	beqz	gp,800003c4 <fail+0x4>
    800003c8:	00119193          	slli	gp,gp,0x1
    800003cc:	0011e193          	ori	gp,gp,1
    800003d0:	05d00893          	li	a7,93
    800003d4:	00018513          	mv	a0,gp
    800003d8:	0000006b          	.4byte	0x6b

00000000800003dc <pass>:
    800003dc:	0ff0000f          	fence
    800003e0:	00100193          	li	gp,1
    800003e4:	05d00893          	li	a7,93
    800003e8:	00000513          	li	a0,0
    800003ec:	0000006b          	.4byte	0x6b
    800003f0:	c0001073          	unimp
    800003f4:	0000                	.2byte	0x0
    800003f6:	0000                	.2byte	0x0
    800003f8:	0000                	.2byte	0x0
    800003fa:	0000                	.2byte	0x0
