
rv64mi-p-sd-misaligned:     file format elf64-littleriscv


Disassembly of section .text.init:

0000000080000000 <_start>:
    80000000:	04c0006f          	j	8000004c <reset_vector>

0000000080000004 <trap_vector>:
    80000004:	34202f73          	csrr	t5,mcause
    80000008:	00800f93          	li	t6,8
    8000000c:	03ff0a63          	beq	t5,t6,80000040 <write_tohost>
    80000010:	00900f93          	li	t6,9
    80000014:	03ff0663          	beq	t5,t6,80000040 <write_tohost>
    80000018:	00b00f93          	li	t6,11
    8000001c:	03ff0263          	beq	t5,t6,80000040 <write_tohost>
    80000020:	00000f17          	auipc	t5,0x0
    80000024:	4a8f0f13          	addi	t5,t5,1192 # 800004c8 <mtvec_handler>
    80000028:	000f0463          	beqz	t5,80000030 <trap_vector+0x2c>
    8000002c:	000f0067          	jr	t5
    80000030:	34202f73          	csrr	t5,mcause
    80000034:	000f5463          	bgez	t5,8000003c <handle_exception>
    80000038:	0040006f          	j	8000003c <handle_exception>

000000008000003c <handle_exception>:
    8000003c:	5391e193          	ori	gp,gp,1337

0000000080000040 <write_tohost>:
    80000040:	00001f17          	auipc	t5,0x1
    80000044:	fc3f2023          	sw	gp,-64(t5) # 80001000 <tohost>
    80000048:	ff9ff06f          	j	80000040 <write_tohost>

000000008000004c <reset_vector>:
    8000004c:	00000093          	li	ra,0
    80000050:	00000113          	li	sp,0
    80000054:	00000193          	li	gp,0
    80000058:	00000213          	li	tp,0
    8000005c:	00000293          	li	t0,0
    80000060:	00000313          	li	t1,0
    80000064:	00000393          	li	t2,0
    80000068:	00000413          	li	s0,0
    8000006c:	00000493          	li	s1,0
    80000070:	00000513          	li	a0,0
    80000074:	00000593          	li	a1,0
    80000078:	00000613          	li	a2,0
    8000007c:	00000693          	li	a3,0
    80000080:	00000713          	li	a4,0
    80000084:	00000793          	li	a5,0
    80000088:	00000813          	li	a6,0
    8000008c:	00000893          	li	a7,0
    80000090:	00000913          	li	s2,0
    80000094:	00000993          	li	s3,0
    80000098:	00000a13          	li	s4,0
    8000009c:	00000a93          	li	s5,0
    800000a0:	00000b13          	li	s6,0
    800000a4:	00000b93          	li	s7,0
    800000a8:	00000c13          	li	s8,0
    800000ac:	00000c93          	li	s9,0
    800000b0:	00000d13          	li	s10,0
    800000b4:	00000d93          	li	s11,0
    800000b8:	00000e13          	li	t3,0
    800000bc:	00000e93          	li	t4,0
    800000c0:	00000f13          	li	t5,0
    800000c4:	00000f93          	li	t6,0
    800000c8:	f1402573          	csrr	a0,mhartid
    800000cc:	00051063          	bnez	a0,800000cc <reset_vector+0x80>
    800000d0:	00000297          	auipc	t0,0x0
    800000d4:	01028293          	addi	t0,t0,16 # 800000e0 <reset_vector+0x94>
    800000d8:	30529073          	csrw	mtvec,t0
    800000dc:	18005073          	csrwi	satp,0
    800000e0:	30405073          	csrwi	mie,0
    800000e4:	00000297          	auipc	t0,0x0
    800000e8:	01428293          	addi	t0,t0,20 # 800000f8 <reset_vector+0xac>
    800000ec:	30529073          	csrw	mtvec,t0
    800000f0:	30205073          	csrwi	medeleg,0
    800000f4:	30305073          	csrwi	mideleg,0
    800000f8:	00000193          	li	gp,0
    800000fc:	00000297          	auipc	t0,0x0
    80000100:	f0828293          	addi	t0,t0,-248 # 80000004 <trap_vector>
    80000104:	30529073          	csrw	mtvec,t0
    80000108:	00100513          	li	a0,1
    8000010c:	01f51513          	slli	a0,a0,0x1f
    80000110:	00055c63          	bgez	a0,80000128 <reset_vector+0xdc>
    80000114:	0ff0000f          	fence
    80000118:	00100193          	li	gp,1
    8000011c:	05d00893          	li	a7,93
    80000120:	00000513          	li	a0,0
    80000124:	0000006b          	.4byte	0x6b
    80000128:	00000293          	li	t0,0
    8000012c:	00028a63          	beqz	t0,80000140 <reset_vector+0xf4>
    80000130:	10529073          	csrw	stvec,t0
    80000134:	0000b2b7          	lui	t0,0xb
    80000138:	1092829b          	addiw	t0,t0,265 # b109 <_start-0x7fff4ef7>
    8000013c:	30229073          	csrw	medeleg,t0
    80000140:	30005073          	csrwi	mstatus,0
    80000144:	00002537          	lui	a0,0x2
    80000148:	8005051b          	addiw	a0,a0,-2048 # 1800 <_start-0x7fffe800>
    8000014c:	30052073          	csrs	mstatus,a0
    80000150:	00000297          	auipc	t0,0x0
    80000154:	01428293          	addi	t0,t0,20 # 80000164 <test_2>
    80000158:	34129073          	csrw	mepc,t0
    8000015c:	f1402573          	csrr	a0,mhartid
    80000160:	30200073          	mret

0000000080000164 <test_2>:
    80000164:	00200193          	li	gp,2
    80000168:	00002097          	auipc	ra,0x2
    8000016c:	e9808093          	addi	ra,ra,-360 # 80002000 <begin_signature>
    80000170:	00408137          	lui	sp,0x408
    80000174:	0c11011b          	addiw	sp,sp,193 # 4080c1 <_start-0x7fbf7f3f>
    80000178:	01111113          	slli	sp,sp,0x11
    8000017c:	28310113          	addi	sp,sp,643
    80000180:	01111113          	slli	sp,sp,0x11
    80000184:	70810113          	addi	sp,sp,1800
    80000188:	00000797          	auipc	a5,0x0
    8000018c:	01478793          	addi	a5,a5,20 # 8000019c <test_2+0x38>
    80000190:	0020b023          	sd	sp,0(ra)
    80000194:	0000b703          	ld	a4,0(ra)
    80000198:	0080006f          	j	800001a0 <test_2+0x3c>
    8000019c:	00010713          	mv	a4,sp
    800001a0:	004083b7          	lui	t2,0x408
    800001a4:	0c13839b          	addiw	t2,t2,193 # 4080c1 <_start-0x7fbf7f3f>
    800001a8:	01139393          	slli	t2,t2,0x11
    800001ac:	28338393          	addi	t2,t2,643
    800001b0:	01139393          	slli	t2,t2,0x11
    800001b4:	70838393          	addi	t2,t2,1800
    800001b8:	2e771063          	bne	a4,t2,80000498 <fail>

00000000800001bc <test_3>:
    800001bc:	00300193          	li	gp,3
    800001c0:	00002097          	auipc	ra,0x2
    800001c4:	e4008093          	addi	ra,ra,-448 # 80002000 <begin_signature>
    800001c8:	0090a137          	lui	sp,0x90a
    800001cc:	0b11011b          	addiw	sp,sp,177 # 90a0b1 <_start-0x7f6f5f4f>
    800001d0:	00c11113          	slli	sp,sp,0xc
    800001d4:	c0d10113          	addi	sp,sp,-1011
    800001d8:	00c11113          	slli	sp,sp,0xc
    800001dc:	0e110113          	addi	sp,sp,225
    800001e0:	00c11113          	slli	sp,sp,0xc
    800001e4:	f1010113          	addi	sp,sp,-240
    800001e8:	00000797          	auipc	a5,0x0
    800001ec:	01478793          	addi	a5,a5,20 # 800001fc <test_3+0x40>
    800001f0:	0020b0a3          	sd	sp,1(ra)
    800001f4:	0010b703          	ld	a4,1(ra)
    800001f8:	0080006f          	j	80000200 <test_3+0x44>
    800001fc:	00010713          	mv	a4,sp
    80000200:	0090a3b7          	lui	t2,0x90a
    80000204:	0b13839b          	addiw	t2,t2,177 # 90a0b1 <_start-0x7f6f5f4f>
    80000208:	00c39393          	slli	t2,t2,0xc
    8000020c:	c0d38393          	addi	t2,t2,-1011
    80000210:	00c39393          	slli	t2,t2,0xc
    80000214:	0e138393          	addi	t2,t2,225
    80000218:	00c39393          	slli	t2,t2,0xc
    8000021c:	f1038393          	addi	t2,t2,-240
    80000220:	26771c63          	bne	a4,t2,80000498 <fail>

0000000080000224 <test_4>:
    80000224:	00400193          	li	gp,4
    80000228:	00002097          	auipc	ra,0x2
    8000022c:	dd808093          	addi	ra,ra,-552 # 80002000 <begin_signature>
    80000230:	01112137          	lui	sp,0x1112
    80000234:	1311011b          	addiw	sp,sp,305 # 1112131 <_start-0x7eeedecf>
    80000238:	00c11113          	slli	sp,sp,0xc
    8000023c:	41510113          	addi	sp,sp,1045
    80000240:	00c11113          	slli	sp,sp,0xc
    80000244:	16110113          	addi	sp,sp,353
    80000248:	00c11113          	slli	sp,sp,0xc
    8000024c:	71810113          	addi	sp,sp,1816
    80000250:	00000797          	auipc	a5,0x0
    80000254:	01478793          	addi	a5,a5,20 # 80000264 <test_4+0x40>
    80000258:	0020b123          	sd	sp,2(ra)
    8000025c:	0020b703          	ld	a4,2(ra)
    80000260:	0080006f          	j	80000268 <test_4+0x44>
    80000264:	00010713          	mv	a4,sp
    80000268:	011123b7          	lui	t2,0x1112
    8000026c:	1313839b          	addiw	t2,t2,305 # 1112131 <_start-0x7eeedecf>
    80000270:	00c39393          	slli	t2,t2,0xc
    80000274:	41538393          	addi	t2,t2,1045
    80000278:	00c39393          	slli	t2,t2,0xc
    8000027c:	16138393          	addi	t2,t2,353
    80000280:	00c39393          	slli	t2,t2,0xc
    80000284:	71838393          	addi	t2,t2,1816
    80000288:	20771863          	bne	a4,t2,80000498 <fail>

000000008000028c <test_5>:
    8000028c:	00500193          	li	gp,5
    80000290:	00002097          	auipc	ra,0x2
    80000294:	d7008093          	addi	ra,ra,-656 # 80002000 <begin_signature>
    80000298:	00c8d137          	lui	sp,0xc8d
    8000029c:	0d91011b          	addiw	sp,sp,217 # c8d0d9 <_start-0x7f372f27>
    800002a0:	00c11113          	slli	sp,sp,0xc
    800002a4:	e0f10113          	addi	sp,sp,-497
    800002a8:	00c11113          	slli	sp,sp,0xc
    800002ac:	8f110113          	addi	sp,sp,-1807
    800002b0:	00d11113          	slli	sp,sp,0xd
    800002b4:	f2010113          	addi	sp,sp,-224
    800002b8:	00000797          	auipc	a5,0x0
    800002bc:	01478793          	addi	a5,a5,20 # 800002cc <test_5+0x40>
    800002c0:	0020b1a3          	sd	sp,3(ra)
    800002c4:	0030b703          	ld	a4,3(ra)
    800002c8:	0080006f          	j	800002d0 <test_5+0x44>
    800002cc:	00010713          	mv	a4,sp
    800002d0:	00c8d3b7          	lui	t2,0xc8d
    800002d4:	0d93839b          	addiw	t2,t2,217 # c8d0d9 <_start-0x7f372f27>
    800002d8:	00c39393          	slli	t2,t2,0xc
    800002dc:	e0f38393          	addi	t2,t2,-497
    800002e0:	00c39393          	slli	t2,t2,0xc
    800002e4:	8f138393          	addi	t2,t2,-1807
    800002e8:	00d39393          	slli	t2,t2,0xd
    800002ec:	f2038393          	addi	t2,t2,-224
    800002f0:	1a771463          	bne	a4,t2,80000498 <fail>

00000000800002f4 <test_6>:
    800002f4:	00600193          	li	gp,6
    800002f8:	00002097          	auipc	ra,0x2
    800002fc:	d0808093          	addi	ra,ra,-760 # 80002000 <begin_signature>
    80000300:	01091137          	lui	sp,0x1091
    80000304:	1191011b          	addiw	sp,sp,281 # 1091119 <_start-0x7ef6eee7>
    80000308:	00c11113          	slli	sp,sp,0xc
    8000030c:	21310113          	addi	sp,sp,531
    80000310:	00c11113          	slli	sp,sp,0xc
    80000314:	93110113          	addi	sp,sp,-1743
    80000318:	00d11113          	slli	sp,sp,0xd
    8000031c:	72810113          	addi	sp,sp,1832
    80000320:	00000797          	auipc	a5,0x0
    80000324:	01478793          	addi	a5,a5,20 # 80000334 <test_6+0x40>
    80000328:	0020b223          	sd	sp,4(ra)
    8000032c:	0040b703          	ld	a4,4(ra)
    80000330:	0080006f          	j	80000338 <test_6+0x44>
    80000334:	00010713          	mv	a4,sp
    80000338:	010913b7          	lui	t2,0x1091
    8000033c:	1193839b          	addiw	t2,t2,281 # 1091119 <_start-0x7ef6eee7>
    80000340:	00c39393          	slli	t2,t2,0xc
    80000344:	21338393          	addi	t2,t2,531
    80000348:	00c39393          	slli	t2,t2,0xc
    8000034c:	93138393          	addi	t2,t2,-1743
    80000350:	00d39393          	slli	t2,t2,0xd
    80000354:	72838393          	addi	t2,t2,1832
    80000358:	14771063          	bne	a4,t2,80000498 <fail>

000000008000035c <test_7>:
    8000035c:	00700193          	li	gp,7
    80000360:	00002097          	auipc	ra,0x2
    80000364:	ca008093          	addi	ra,ra,-864 # 80002000 <begin_signature>
    80000368:	0292a137          	lui	sp,0x292a
    8000036c:	2b31011b          	addiw	sp,sp,691 # 292a2b3 <_start-0x7d6d5d4d>
    80000370:	00c11113          	slli	sp,sp,0xc
    80000374:	c2d10113          	addi	sp,sp,-979
    80000378:	00c11113          	slli	sp,sp,0xc
    8000037c:	2e310113          	addi	sp,sp,739
    80000380:	00c11113          	slli	sp,sp,0xc
    80000384:	f3010113          	addi	sp,sp,-208
    80000388:	00000797          	auipc	a5,0x0
    8000038c:	01478793          	addi	a5,a5,20 # 8000039c <test_7+0x40>
    80000390:	0020b2a3          	sd	sp,5(ra)
    80000394:	0050b703          	ld	a4,5(ra)
    80000398:	0080006f          	j	800003a0 <test_7+0x44>
    8000039c:	00010713          	mv	a4,sp
    800003a0:	0292a3b7          	lui	t2,0x292a
    800003a4:	2b33839b          	addiw	t2,t2,691 # 292a2b3 <_start-0x7d6d5d4d>
    800003a8:	00c39393          	slli	t2,t2,0xc
    800003ac:	c2d38393          	addi	t2,t2,-979
    800003b0:	00c39393          	slli	t2,t2,0xc
    800003b4:	2e338393          	addi	t2,t2,739
    800003b8:	00c39393          	slli	t2,t2,0xc
    800003bc:	f3038393          	addi	t2,t2,-208
    800003c0:	0c771c63          	bne	a4,t2,80000498 <fail>

00000000800003c4 <test_8>:
    800003c4:	00800193          	li	gp,8
    800003c8:	00002097          	auipc	ra,0x2
    800003cc:	c3808093          	addi	ra,ra,-968 # 80002000 <begin_signature>
    800003d0:	03132137          	lui	sp,0x3132
    800003d4:	3331011b          	addiw	sp,sp,819 # 3132333 <_start-0x7cecdccd>
    800003d8:	00c11113          	slli	sp,sp,0xc
    800003dc:	43510113          	addi	sp,sp,1077
    800003e0:	00c11113          	slli	sp,sp,0xc
    800003e4:	36310113          	addi	sp,sp,867
    800003e8:	00c11113          	slli	sp,sp,0xc
    800003ec:	73810113          	addi	sp,sp,1848
    800003f0:	00000797          	auipc	a5,0x0
    800003f4:	01478793          	addi	a5,a5,20 # 80000404 <test_8+0x40>
    800003f8:	0020b323          	sd	sp,6(ra)
    800003fc:	0060b703          	ld	a4,6(ra)
    80000400:	0080006f          	j	80000408 <test_8+0x44>
    80000404:	00010713          	mv	a4,sp
    80000408:	031323b7          	lui	t2,0x3132
    8000040c:	3333839b          	addiw	t2,t2,819 # 3132333 <_start-0x7cecdccd>
    80000410:	00c39393          	slli	t2,t2,0xc
    80000414:	43538393          	addi	t2,t2,1077
    80000418:	00c39393          	slli	t2,t2,0xc
    8000041c:	36338393          	addi	t2,t2,867
    80000420:	00c39393          	slli	t2,t2,0xc
    80000424:	73838393          	addi	t2,t2,1848
    80000428:	06771863          	bne	a4,t2,80000498 <fail>

000000008000042c <test_9>:
    8000042c:	00900193          	li	gp,9
    80000430:	00002097          	auipc	ra,0x2
    80000434:	bd008093          	addi	ra,ra,-1072 # 80002000 <begin_signature>
    80000438:	00e4f137          	lui	sp,0xe4f
    8000043c:	8ed1011b          	addiw	sp,sp,-1811 # e4e8ed <_start-0x7f1b1713>
    80000440:	00c11113          	slli	sp,sp,0xc
    80000444:	f0f10113          	addi	sp,sp,-241
    80000448:	00c11113          	slli	sp,sp,0xc
    8000044c:	4f910113          	addi	sp,sp,1273
    80000450:	00e11113          	slli	sp,sp,0xe
    80000454:	f4010113          	addi	sp,sp,-192
    80000458:	00000797          	auipc	a5,0x0
    8000045c:	01478793          	addi	a5,a5,20 # 8000046c <test_9+0x40>
    80000460:	0020b3a3          	sd	sp,7(ra)
    80000464:	0070b703          	ld	a4,7(ra)
    80000468:	0080006f          	j	80000470 <test_9+0x44>
    8000046c:	00010713          	mv	a4,sp
    80000470:	00e4f3b7          	lui	t2,0xe4f
    80000474:	8ed3839b          	addiw	t2,t2,-1811 # e4e8ed <_start-0x7f1b1713>
    80000478:	00c39393          	slli	t2,t2,0xc
    8000047c:	f0f38393          	addi	t2,t2,-241
    80000480:	00c39393          	slli	t2,t2,0xc
    80000484:	4f938393          	addi	t2,t2,1273
    80000488:	00e39393          	slli	t2,t2,0xe
    8000048c:	f4038393          	addi	t2,t2,-192
    80000490:	00771463          	bne	a4,t2,80000498 <fail>
    80000494:	02301063          	bne	zero,gp,800004b4 <pass>

0000000080000498 <fail>:
    80000498:	0ff0000f          	fence
    8000049c:	00018063          	beqz	gp,8000049c <fail+0x4>
    800004a0:	00119193          	slli	gp,gp,0x1
    800004a4:	0011e193          	ori	gp,gp,1
    800004a8:	05d00893          	li	a7,93
    800004ac:	00018513          	mv	a0,gp
    800004b0:	0000006b          	.4byte	0x6b

00000000800004b4 <pass>:
    800004b4:	0ff0000f          	fence
    800004b8:	00100193          	li	gp,1
    800004bc:	05d00893          	li	a7,93
    800004c0:	00000513          	li	a0,0
    800004c4:	0000006b          	.4byte	0x6b

00000000800004c8 <mtvec_handler>:
    800004c8:	00600293          	li	t0,6
    800004cc:	34202373          	csrr	t1,mcause
    800004d0:	fc6294e3          	bne	t0,t1,80000498 <fail>
    800004d4:	34179073          	csrw	mepc,a5
    800004d8:	30200073          	mret
    800004dc:	c0001073          	unimp
    800004e0:	0000                	.2byte	0x0
    800004e2:	0000                	.2byte	0x0
    800004e4:	0000                	.2byte	0x0
    800004e6:	0000                	.2byte	0x0
    800004e8:	0000                	.2byte	0x0
    800004ea:	0000                	.2byte	0x0
    800004ec:	0000                	.2byte	0x0
    800004ee:	0000                	.2byte	0x0
    800004f0:	0000                	.2byte	0x0
    800004f2:	0000                	.2byte	0x0
    800004f4:	0000                	.2byte	0x0
    800004f6:	0000                	.2byte	0x0
    800004f8:	0000                	.2byte	0x0
    800004fa:	0000                	.2byte	0x0
    800004fc:	0000                	.2byte	0x0
    800004fe:	0000                	.2byte	0x0
